

Microchip MPLAB XC8 Assembler V3.10 build 20250813170317 
                                                                                               Tue May  5 08:20:31 2026

Microchip MPLAB XC8 C Compiler v3.10 (Free license) build 20250813170317 Og1 
     1                           	processor	18F4550
     2                           	fnconf	rparam,??,?,0
     3                           	pagewidth 120
     4                           	opt	flic
     5                           	psect	mediumconst,global,reloc=2,class=MEDIUMCONST,space=0,delta=1,noexec
     6                           	psect	cinit,global,reloc=2,class=CODE,space=0,delta=1
     7                           	psect	bssCOMRAM,global,class=COMRAM,space=1,delta=1,lowdata,noexec
     8                           	psect	cstackCOMRAM,global,class=COMRAM,space=1,delta=1,lowdata,noexec
     9                           	psect	text0,global,reloc=2,class=CODE,space=0,delta=1
    10                           	psect	text1,global,reloc=2,class=CODE,space=0,delta=1
    11                           	psect	text2,global,reloc=2,class=CODE,space=0,delta=1
    12                           	psect	text3,global,reloc=2,class=CODE,space=0,delta=1
    13                           	psect	text4,global,reloc=2,class=CODE,space=0,delta=1
    14                           	psect	text5,global,reloc=2,class=CODE,space=0,delta=1
    15                           	psect	text6,global,reloc=2,class=CODE,space=0,delta=1
    16                           	psect	text7,global,reloc=2,class=CODE,space=0,delta=1
    17                           	psect	text8,global,reloc=2,class=CODE,space=0,delta=1
    18                           	psect	text9,global,reloc=2,class=CODE,space=0,delta=1,group=1
    19                           	psect	text10,global,reloc=2,class=CODE,space=0,delta=1,group=1
    20                           	psect	text11,global,reloc=2,class=CODE,space=0,delta=1
    21                           	psect	text12,global,reloc=2,class=CODE,space=0,delta=1
    22                           	psect	text13,global,reloc=2,class=CODE,space=0,delta=1
    23                           	psect	text14,global,reloc=2,class=CODE,space=0,delta=1
    24                           	psect	text15,global,reloc=2,class=CODE,space=0,delta=1
    25                           	psect	text16,global,reloc=2,class=CODE,space=0,delta=1
    26                           	psect	text17,global,reloc=2,class=CODE,space=0,delta=1
    27                           	psect	text18,global,reloc=2,class=CODE,space=0,delta=1
    28                           	psect	text19,global,reloc=2,class=CODE,space=0,delta=1
    29                           	psect	text20,global,reloc=2,class=CODE,space=0,delta=1
    30                           	psect	text21,global,reloc=2,class=CODE,space=0,delta=1
    31                           	psect	text22,global,reloc=2,class=CODE,space=0,delta=1
    32                           	psect	text23,global,reloc=2,class=CODE,space=0,delta=1
    33                           	psect	intsave_regs,global,class=BIGRAM,space=1,delta=1,noexec
    34                           	psect	rparam,global,class=COMRAM,space=1,delta=1,noexec
    35                           	psect	config,global,abs,ovrld,class=CONFIG,space=4,delta=1,noexec
    36   000000                     
    37                           ; Generated 17/01/2025 GMT
    38                           ; 
    39                           ; Copyright © 2025, Microchip Technology Inc. and its subsidiaries ("Microchip")
    40                           ; All rights reserved.
    41                           ; 
    42                           ; This software is developed by Microchip Technology Inc. and its subsidiaries ("Microch
      +                          ip").
    43                           ; 
    44                           ; Redistribution and use in source and binary forms, with or without modification, are
    45                           ; permitted provided that the following conditions are met:
    46                           ; 
    47                           ;     1. Redistributions of source code must retain the above copyright notice, this lis
      +                          t of
    48                           ;        conditions and the following disclaimer.
    49                           ; 
    50                           ;     2. Redistributions in binary form must reproduce the above copyright notice, this 
      +                          list
    51                           ;        of conditions and the following disclaimer in the documentation and/or other
    52                           ;        materials provided with the distribution. Publication is not required when
    53                           ;        this file is used in an embedded application.
    54                           ; 
    55                           ;     3. Microchip's name may not be used to endorse or promote products derived from th
      +                          is
    56                           ;        software without specific prior written permission.
    57                           ; 
    58                           ; THIS SOFTWARE IS PROVIDED BY MICROCHIP "AS IS" AND ANY EXPRESS OR IMPLIED WARRANTIES,
    59                           ; INCLUDING, BUT NOT LIMITED TO, THE IMPLIED WARRANTIES OF MERCHANTABILITY AND FITNESS F
      +                          OR
    60                           ; PURPOSE ARE DISCLAIMED.  IN NO EVENT SHALL MICROCHIP BE LIABLE FOR ANY DIRECT, INDIREC
      +                          T,
    61                           ; INCIDENTAL, SPECIAL, EXEMPLARY, OR CONSEQUENTIAL DAMAGES (INCLUDING BUT NOT LIMITED TO
    62                           ; PROCUREMENT OF SUBSTITUTE GOODS OR SERVICES; LOSS OF USE, DATA OR PROFITS; OR BUSINESS
    63                           ; INTERRUPTION) HOWSOEVER CAUSED AND ON ANY THEORY OF LIABILITY, WHETHER IN CONTRACT, ST
      +                          RICT
    64                           ; LIABILITY, OR TORT (INCLUDING NEGLIGENCE OR OTHERWISE) ARISING IN ANY WAY OUT OF THE U
      +                          SE OF
    65                           ; THIS SOFTWARE, EVEN IF ADVISED OF THE POSSIBILITY OF SUCH DAMAGE.
    66                           ; 
    67                           ; 
    68                           ; Code-generator required, PIC18F4550 Definitions
    69                           ; 
    70                           ; SFR Addresses
    71   000FE0                     bsr             equ	4064
    72   000FE9                     fsr0            equ	4073
    73   000FEA                     fsr0h           equ	4074
    74   000FE9                     fsr0l           equ	4073
    75   000FE1                     fsr1            equ	4065
    76   000FE2                     fsr1h           equ	4066
    77   000FE1                     fsr1l           equ	4065
    78   000FD9                     fsr2            equ	4057
    79   000FDA                     fsr2h           equ	4058
    80   000FD9                     fsr2l           equ	4057
    81   000FEF                     indf0           equ	4079
    82   000FE7                     indf1           equ	4071
    83   000FDF                     indf2           equ	4063
    84   000FF2                     intcon          equ	4082
    85   000000                     nvmcon          equ	0
    86   000FF9                     pcl             equ	4089
    87   000FFA                     pclath          equ	4090
    88   000FFB                     pclatu          equ	4091
    89   000FEB                     plusw0          equ	4075
    90   000FE3                     plusw1          equ	4067
    91   000FDB                     plusw2          equ	4059
    92   000FED                     postdec0        equ	4077
    93   000FE5                     postdec1        equ	4069
    94   000FDD                     postdec2        equ	4061
    95   000FEE                     postinc0        equ	4078
    96   000FE6                     postinc1        equ	4070
    97   000FDE                     postinc2        equ	4062
    98   000FEC                     preinc0         equ	4076
    99   000FE4                     preinc1         equ	4068
   100   000FDC                     preinc2         equ	4060
   101   000FF3                     prod            equ	4083
   102   000FF4                     prodh           equ	4084
   103   000FF3                     prodl           equ	4083
   104   000FD8                     status          equ	4056
   105   000FF5                     tablat          equ	4085
   106   000FF6                     tblptr          equ	4086
   107   000FF7                     tblptrh         equ	4087
   108   000FF6                     tblptrl         equ	4086
   109   000FF8                     tblptru         equ	4088
   110   000FFD                     tosl            equ	4093
   111   000FE8                     wreg            equ	4072
   112   000F62                     SPPDATA         equ	3938	;# 
   113   000F63                     SPPCFG          equ	3939	;# 
   114   000F64                     SPPEPS          equ	3940	;# 
   115   000F65                     SPPCON          equ	3941	;# 
   116   000F66                     UFRM            equ	3942	;# 
   117   000F66                     UFRML           equ	3942	;# 
   118   000F67                     UFRMH           equ	3943	;# 
   119   000F68                     UIR             equ	3944	;# 
   120   000F69                     UIE             equ	3945	;# 
   121   000F6A                     UEIR            equ	3946	;# 
   122   000F6B                     UEIE            equ	3947	;# 
   123   000F6C                     USTAT           equ	3948	;# 
   124   000F6D                     UCON            equ	3949	;# 
   125   000F6E                     UADDR           equ	3950	;# 
   126   000F6F                     UCFG            equ	3951	;# 
   127   000F70                     UEP0            equ	3952	;# 
   128   000F71                     UEP1            equ	3953	;# 
   129   000F72                     UEP2            equ	3954	;# 
   130   000F73                     UEP3            equ	3955	;# 
   131   000F74                     UEP4            equ	3956	;# 
   132   000F75                     UEP5            equ	3957	;# 
   133   000F76                     UEP6            equ	3958	;# 
   134   000F77                     UEP7            equ	3959	;# 
   135   000F78                     UEP8            equ	3960	;# 
   136   000F79                     UEP9            equ	3961	;# 
   137   000F7A                     UEP10           equ	3962	;# 
   138   000F7B                     UEP11           equ	3963	;# 
   139   000F7C                     UEP12           equ	3964	;# 
   140   000F7D                     UEP13           equ	3965	;# 
   141   000F7E                     UEP14           equ	3966	;# 
   142   000F7F                     UEP15           equ	3967	;# 
   143   000F80                     PORTA           equ	3968	;# 
   144   000F81                     PORTB           equ	3969	;# 
   145   000F82                     PORTC           equ	3970	;# 
   146   000F83                     PORTD           equ	3971	;# 
   147   000F84                     PORTE           equ	3972	;# 
   148   000F89                     LATA            equ	3977	;# 
   149   000F8A                     LATB            equ	3978	;# 
   150   000F8B                     LATC            equ	3979	;# 
   151   000F8C                     LATD            equ	3980	;# 
   152   000F8D                     LATE            equ	3981	;# 
   153   000F92                     TRISA           equ	3986	;# 
   154   000F92                     DDRA            equ	3986	;# 
   155   000F93                     TRISB           equ	3987	;# 
   156   000F93                     DDRB            equ	3987	;# 
   157   000F94                     TRISC           equ	3988	;# 
   158   000F94                     DDRC            equ	3988	;# 
   159   000F95                     TRISD           equ	3989	;# 
   160   000F95                     DDRD            equ	3989	;# 
   161   000F96                     TRISE           equ	3990	;# 
   162   000F96                     DDRE            equ	3990	;# 
   163   000F9B                     OSCTUNE         equ	3995	;# 
   164   000F9D                     PIE1            equ	3997	;# 
   165   000F9E                     PIR1            equ	3998	;# 
   166   000F9F                     IPR1            equ	3999	;# 
   167   000FA0                     PIE2            equ	4000	;# 
   168   000FA1                     PIR2            equ	4001	;# 
   169   000FA2                     IPR2            equ	4002	;# 
   170   000FA6                     EECON1          equ	4006	;# 
   171   000FA7                     EECON2          equ	4007	;# 
   172   000FA8                     EEDATA          equ	4008	;# 
   173   000FA9                     EEADR           equ	4009	;# 
   174   000FAB                     RCSTA           equ	4011	;# 
   175   000FAB                     RCSTA1          equ	4011	;# 
   176   000FAC                     TXSTA           equ	4012	;# 
   177   000FAC                     TXSTA1          equ	4012	;# 
   178   000FAD                     TXREG           equ	4013	;# 
   179   000FAD                     TXREG1          equ	4013	;# 
   180   000FAE                     RCREG           equ	4014	;# 
   181   000FAE                     RCREG1          equ	4014	;# 
   182   000FAF                     SPBRG           equ	4015	;# 
   183   000FAF                     SPBRG1          equ	4015	;# 
   184   000FB0                     SPBRGH          equ	4016	;# 
   185   000FB1                     T3CON           equ	4017	;# 
   186   000FB2                     TMR3            equ	4018	;# 
   187   000FB2                     TMR3L           equ	4018	;# 
   188   000FB3                     TMR3H           equ	4019	;# 
   189   000FB4                     CMCON           equ	4020	;# 
   190   000FB5                     CVRCON          equ	4021	;# 
   191   000FB6                     ECCP1AS         equ	4022	;# 
   192   000FB6                     CCP1AS          equ	4022	;# 
   193   000FB7                     ECCP1DEL        equ	4023	;# 
   194   000FB7                     CCP1DEL         equ	4023	;# 
   195   000FB8                     BAUDCON         equ	4024	;# 
   196   000FB8                     BAUDCTL         equ	4024	;# 
   197   000FBA                     CCP2CON         equ	4026	;# 
   198   000FBB                     CCPR2           equ	4027	;# 
   199   000FBB                     CCPR2L          equ	4027	;# 
   200   000FBC                     CCPR2H          equ	4028	;# 
   201   000FBD                     CCP1CON         equ	4029	;# 
   202   000FBD                     ECCP1CON        equ	4029	;# 
   203   000FBE                     CCPR1           equ	4030	;# 
   204   000FBE                     CCPR1L          equ	4030	;# 
   205   000FBF                     CCPR1H          equ	4031	;# 
   206   000FC0                     ADCON2          equ	4032	;# 
   207   000FC1                     ADCON1          equ	4033	;# 
   208   000FC2                     ADCON0          equ	4034	;# 
   209   000FC3                     ADRES           equ	4035	;# 
   210   000FC3                     ADRESL          equ	4035	;# 
   211   000FC4                     ADRESH          equ	4036	;# 
   212   000FC5                     SSPCON2         equ	4037	;# 
   213   000FC6                     SSPCON1         equ	4038	;# 
   214   000FC7                     SSPSTAT         equ	4039	;# 
   215   000FC8                     SSPADD          equ	4040	;# 
   216   000FC9                     SSPBUF          equ	4041	;# 
   217   000FCA                     T2CON           equ	4042	;# 
   218   000FCB                     PR2             equ	4043	;# 
   219   000FCB                     MEMCON          equ	4043	;# 
   220   000FCC                     TMR2            equ	4044	;# 
   221   000FCD                     T1CON           equ	4045	;# 
   222   000FCE                     TMR1            equ	4046	;# 
   223   000FCE                     TMR1L           equ	4046	;# 
   224   000FCF                     TMR1H           equ	4047	;# 
   225   000FD0                     RCON            equ	4048	;# 
   226   000FD1                     WDTCON          equ	4049	;# 
   227   000FD2                     HLVDCON         equ	4050	;# 
   228   000FD2                     LVDCON          equ	4050	;# 
   229   000FD3                     OSCCON          equ	4051	;# 
   230   000FD5                     T0CON           equ	4053	;# 
   231   000FD6                     TMR0            equ	4054	;# 
   232   000FD6                     TMR0L           equ	4054	;# 
   233   000FD7                     TMR0H           equ	4055	;# 
   234   000FD8                     STATUS          equ	4056	;# 
   235   000FD9                     FSR2            equ	4057	;# 
   236   000FD9                     FSR2L           equ	4057	;# 
   237   000FDA                     FSR2H           equ	4058	;# 
   238   000FDB                     PLUSW2          equ	4059	;# 
   239   000FDC                     PREINC2         equ	4060	;# 
   240   000FDD                     POSTDEC2        equ	4061	;# 
   241   000FDE                     POSTINC2        equ	4062	;# 
   242   000FDF                     INDF2           equ	4063	;# 
   243   000FE0                     BSR             equ	4064	;# 
   244   000FE1                     FSR1            equ	4065	;# 
   245   000FE1                     FSR1L           equ	4065	;# 
   246   000FE2                     FSR1H           equ	4066	;# 
   247   000FE3                     PLUSW1          equ	4067	;# 
   248   000FE4                     PREINC1         equ	4068	;# 
   249   000FE5                     POSTDEC1        equ	4069	;# 
   250   000FE6                     POSTINC1        equ	4070	;# 
   251   000FE7                     INDF1           equ	4071	;# 
   252   000FE8                     WREG            equ	4072	;# 
   253   000FE9                     FSR0            equ	4073	;# 
   254   000FE9                     FSR0L           equ	4073	;# 
   255   000FEA                     FSR0H           equ	4074	;# 
   256   000FEB                     PLUSW0          equ	4075	;# 
   257   000FEC                     PREINC0         equ	4076	;# 
   258   000FED                     POSTDEC0        equ	4077	;# 
   259   000FEE                     POSTINC0        equ	4078	;# 
   260   000FEF                     INDF0           equ	4079	;# 
   261   000FF0                     INTCON3         equ	4080	;# 
   262   000FF1                     INTCON2         equ	4081	;# 
   263   000FF2                     INTCON          equ	4082	;# 
   264   000FF3                     PROD            equ	4083	;# 
   265   000FF3                     PRODL           equ	4083	;# 
   266   000FF4                     PRODH           equ	4084	;# 
   267   000FF5                     TABLAT          equ	4085	;# 
   268   000FF6                     TBLPTR          equ	4086	;# 
   269   000FF6                     TBLPTRL         equ	4086	;# 
   270   000FF7                     TBLPTRH         equ	4087	;# 
   271   000FF8                     TBLPTRU         equ	4088	;# 
   272   000FF9                     PCLAT           equ	4089	;# 
   273   000FF9                     PC              equ	4089	;# 
   274   000FF9                     PCL             equ	4089	;# 
   275   000FFA                     PCLATH          equ	4090	;# 
   276   000FFB                     PCLATU          equ	4091	;# 
   277   000FFC                     STKPTR          equ	4092	;# 
   278   000FFD                     TOS             equ	4093	;# 
   279   000FFD                     TOSL            equ	4093	;# 
   280   000FFE                     TOSH            equ	4094	;# 
   281   000FFF                     TOSU            equ	4095	;# 
   282   000F62                     SPPDATA         equ	3938	;# 
   283   000F63                     SPPCFG          equ	3939	;# 
   284   000F64                     SPPEPS          equ	3940	;# 
   285   000F65                     SPPCON          equ	3941	;# 
   286   000F66                     UFRM            equ	3942	;# 
   287   000F66                     UFRML           equ	3942	;# 
   288   000F67                     UFRMH           equ	3943	;# 
   289   000F68                     UIR             equ	3944	;# 
   290   000F69                     UIE             equ	3945	;# 
   291   000F6A                     UEIR            equ	3946	;# 
   292   000F6B                     UEIE            equ	3947	;# 
   293   000F6C                     USTAT           equ	3948	;# 
   294   000F6D                     UCON            equ	3949	;# 
   295   000F6E                     UADDR           equ	3950	;# 
   296   000F6F                     UCFG            equ	3951	;# 
   297   000F70                     UEP0            equ	3952	;# 
   298   000F71                     UEP1            equ	3953	;# 
   299   000F72                     UEP2            equ	3954	;# 
   300   000F73                     UEP3            equ	3955	;# 
   301   000F74                     UEP4            equ	3956	;# 
   302   000F75                     UEP5            equ	3957	;# 
   303   000F76                     UEP6            equ	3958	;# 
   304   000F77                     UEP7            equ	3959	;# 
   305   000F78                     UEP8            equ	3960	;# 
   306   000F79                     UEP9            equ	3961	;# 
   307   000F7A                     UEP10           equ	3962	;# 
   308   000F7B                     UEP11           equ	3963	;# 
   309   000F7C                     UEP12           equ	3964	;# 
   310   000F7D                     UEP13           equ	3965	;# 
   311   000F7E                     UEP14           equ	3966	;# 
   312   000F7F                     UEP15           equ	3967	;# 
   313   000F80                     PORTA           equ	3968	;# 
   314   000F81                     PORTB           equ	3969	;# 
   315   000F82                     PORTC           equ	3970	;# 
   316   000F83                     PORTD           equ	3971	;# 
   317   000F84                     PORTE           equ	3972	;# 
   318   000F89                     LATA            equ	3977	;# 
   319   000F8A                     LATB            equ	3978	;# 
   320   000F8B                     LATC            equ	3979	;# 
   321   000F8C                     LATD            equ	3980	;# 
   322   000F8D                     LATE            equ	3981	;# 
   323   000F92                     TRISA           equ	3986	;# 
   324   000F92                     DDRA            equ	3986	;# 
   325   000F93                     TRISB           equ	3987	;# 
   326   000F93                     DDRB            equ	3987	;# 
   327   000F94                     TRISC           equ	3988	;# 
   328   000F94                     DDRC            equ	3988	;# 
   329   000F95                     TRISD           equ	3989	;# 
   330   000F95                     DDRD            equ	3989	;# 
   331   000F96                     TRISE           equ	3990	;# 
   332   000F96                     DDRE            equ	3990	;# 
   333   000F9B                     OSCTUNE         equ	3995	;# 
   334   000F9D                     PIE1            equ	3997	;# 
   335   000F9E                     PIR1            equ	3998	;# 
   336   000F9F                     IPR1            equ	3999	;# 
   337   000FA0                     PIE2            equ	4000	;# 
   338   000FA1                     PIR2            equ	4001	;# 
   339   000FA2                     IPR2            equ	4002	;# 
   340   000FA6                     EECON1          equ	4006	;# 
   341   000FA7                     EECON2          equ	4007	;# 
   342   000FA8                     EEDATA          equ	4008	;# 
   343   000FA9                     EEADR           equ	4009	;# 
   344   000FAB                     RCSTA           equ	4011	;# 
   345   000FAB                     RCSTA1          equ	4011	;# 
   346   000FAC                     TXSTA           equ	4012	;# 
   347   000FAC                     TXSTA1          equ	4012	;# 
   348   000FAD                     TXREG           equ	4013	;# 
   349   000FAD                     TXREG1          equ	4013	;# 
   350   000FAE                     RCREG           equ	4014	;# 
   351   000FAE                     RCREG1          equ	4014	;# 
   352   000FAF                     SPBRG           equ	4015	;# 
   353   000FAF                     SPBRG1          equ	4015	;# 
   354   000FB0                     SPBRGH          equ	4016	;# 
   355   000FB1                     T3CON           equ	4017	;# 
   356   000FB2                     TMR3            equ	4018	;# 
   357   000FB2                     TMR3L           equ	4018	;# 
   358   000FB3                     TMR3H           equ	4019	;# 
   359   000FB4                     CMCON           equ	4020	;# 
   360   000FB5                     CVRCON          equ	4021	;# 
   361   000FB6                     ECCP1AS         equ	4022	;# 
   362   000FB6                     CCP1AS          equ	4022	;# 
   363   000FB7                     ECCP1DEL        equ	4023	;# 
   364   000FB7                     CCP1DEL         equ	4023	;# 
   365   000FB8                     BAUDCON         equ	4024	;# 
   366   000FB8                     BAUDCTL         equ	4024	;# 
   367   000FBA                     CCP2CON         equ	4026	;# 
   368   000FBB                     CCPR2           equ	4027	;# 
   369   000FBB                     CCPR2L          equ	4027	;# 
   370   000FBC                     CCPR2H          equ	4028	;# 
   371   000FBD                     CCP1CON         equ	4029	;# 
   372   000FBD                     ECCP1CON        equ	4029	;# 
   373   000FBE                     CCPR1           equ	4030	;# 
   374   000FBE                     CCPR1L          equ	4030	;# 
   375   000FBF                     CCPR1H          equ	4031	;# 
   376   000FC0                     ADCON2          equ	4032	;# 
   377   000FC1                     ADCON1          equ	4033	;# 
   378   000FC2                     ADCON0          equ	4034	;# 
   379   000FC3                     ADRES           equ	4035	;# 
   380   000FC3                     ADRESL          equ	4035	;# 
   381   000FC4                     ADRESH          equ	4036	;# 
   382   000FC5                     SSPCON2         equ	4037	;# 
   383   000FC6                     SSPCON1         equ	4038	;# 
   384   000FC7                     SSPSTAT         equ	4039	;# 
   385   000FC8                     SSPADD          equ	4040	;# 
   386   000FC9                     SSPBUF          equ	4041	;# 
   387   000FCA                     T2CON           equ	4042	;# 
   388   000FCB                     PR2             equ	4043	;# 
   389   000FCB                     MEMCON          equ	4043	;# 
   390   000FCC                     TMR2            equ	4044	;# 
   391   000FCD                     T1CON           equ	4045	;# 
   392   000FCE                     TMR1            equ	4046	;# 
   393   000FCE                     TMR1L           equ	4046	;# 
   394   000FCF                     TMR1H           equ	4047	;# 
   395   000FD0                     RCON            equ	4048	;# 
   396   000FD1                     WDTCON          equ	4049	;# 
   397   000FD2                     HLVDCON         equ	4050	;# 
   398   000FD2                     LVDCON          equ	4050	;# 
   399   000FD3                     OSCCON          equ	4051	;# 
   400   000FD5                     T0CON           equ	4053	;# 
   401   000FD6                     TMR0            equ	4054	;# 
   402   000FD6                     TMR0L           equ	4054	;# 
   403   000FD7                     TMR0H           equ	4055	;# 
   404   000FD8                     STATUS          equ	4056	;# 
   405   000FD9                     FSR2            equ	4057	;# 
   406   000FD9                     FSR2L           equ	4057	;# 
   407   000FDA                     FSR2H           equ	4058	;# 
   408   000FDB                     PLUSW2          equ	4059	;# 
   409   000FDC                     PREINC2         equ	4060	;# 
   410   000FDD                     POSTDEC2        equ	4061	;# 
   411   000FDE                     POSTINC2        equ	4062	;# 
   412   000FDF                     INDF2           equ	4063	;# 
   413   000FE0                     BSR             equ	4064	;# 
   414   000FE1                     FSR1            equ	4065	;# 
   415   000FE1                     FSR1L           equ	4065	;# 
   416   000FE2                     FSR1H           equ	4066	;# 
   417   000FE3                     PLUSW1          equ	4067	;# 
   418   000FE4                     PREINC1         equ	4068	;# 
   419   000FE5                     POSTDEC1        equ	4069	;# 
   420   000FE6                     POSTINC1        equ	4070	;# 
   421   000FE7                     INDF1           equ	4071	;# 
   422   000FE8                     WREG            equ	4072	;# 
   423   000FE9                     FSR0            equ	4073	;# 
   424   000FE9                     FSR0L           equ	4073	;# 
   425   000FEA                     FSR0H           equ	4074	;# 
   426   000FEB                     PLUSW0          equ	4075	;# 
   427   000FEC                     PREINC0         equ	4076	;# 
   428   000FED                     POSTDEC0        equ	4077	;# 
   429   000FEE                     POSTINC0        equ	4078	;# 
   430   000FEF                     INDF0           equ	4079	;# 
   431   000FF0                     INTCON3         equ	4080	;# 
   432   000FF1                     INTCON2         equ	4081	;# 
   433   000FF2                     INTCON          equ	4082	;# 
   434   000FF3                     PROD            equ	4083	;# 
   435   000FF3                     PRODL           equ	4083	;# 
   436   000FF4                     PRODH           equ	4084	;# 
   437   000FF5                     TABLAT          equ	4085	;# 
   438   000FF6                     TBLPTR          equ	4086	;# 
   439   000FF6                     TBLPTRL         equ	4086	;# 
   440   000FF7                     TBLPTRH         equ	4087	;# 
   441   000FF8                     TBLPTRU         equ	4088	;# 
   442   000FF9                     PCLAT           equ	4089	;# 
   443   000FF9                     PC              equ	4089	;# 
   444   000FF9                     PCL             equ	4089	;# 
   445   000FFA                     PCLATH          equ	4090	;# 
   446   000FFB                     PCLATU          equ	4091	;# 
   447   000FFC                     STKPTR          equ	4092	;# 
   448   000FFD                     TOS             equ	4093	;# 
   449   000FFD                     TOSL            equ	4093	;# 
   450   000FFE                     TOSH            equ	4094	;# 
   451   000FFF                     TOSU            equ	4095	;# 
   452   000F62                     SPPDATA         equ	3938	;# 
   453   000F63                     SPPCFG          equ	3939	;# 
   454   000F64                     SPPEPS          equ	3940	;# 
   455   000F65                     SPPCON          equ	3941	;# 
   456   000F66                     UFRM            equ	3942	;# 
   457   000F66                     UFRML           equ	3942	;# 
   458   000F67                     UFRMH           equ	3943	;# 
   459   000F68                     UIR             equ	3944	;# 
   460   000F69                     UIE             equ	3945	;# 
   461   000F6A                     UEIR            equ	3946	;# 
   462   000F6B                     UEIE            equ	3947	;# 
   463   000F6C                     USTAT           equ	3948	;# 
   464   000F6D                     UCON            equ	3949	;# 
   465   000F6E                     UADDR           equ	3950	;# 
   466   000F6F                     UCFG            equ	3951	;# 
   467   000F70                     UEP0            equ	3952	;# 
   468   000F71                     UEP1            equ	3953	;# 
   469   000F72                     UEP2            equ	3954	;# 
   470   000F73                     UEP3            equ	3955	;# 
   471   000F74                     UEP4            equ	3956	;# 
   472   000F75                     UEP5            equ	3957	;# 
   473   000F76                     UEP6            equ	3958	;# 
   474   000F77                     UEP7            equ	3959	;# 
   475   000F78                     UEP8            equ	3960	;# 
   476   000F79                     UEP9            equ	3961	;# 
   477   000F7A                     UEP10           equ	3962	;# 
   478   000F7B                     UEP11           equ	3963	;# 
   479   000F7C                     UEP12           equ	3964	;# 
   480   000F7D                     UEP13           equ	3965	;# 
   481   000F7E                     UEP14           equ	3966	;# 
   482   000F7F                     UEP15           equ	3967	;# 
   483   000F80                     PORTA           equ	3968	;# 
   484   000F81                     PORTB           equ	3969	;# 
   485   000F82                     PORTC           equ	3970	;# 
   486   000F83                     PORTD           equ	3971	;# 
   487   000F84                     PORTE           equ	3972	;# 
   488   000F89                     LATA            equ	3977	;# 
   489   000F8A                     LATB            equ	3978	;# 
   490   000F8B                     LATC            equ	3979	;# 
   491   000F8C                     LATD            equ	3980	;# 
   492   000F8D                     LATE            equ	3981	;# 
   493   000F92                     TRISA           equ	3986	;# 
   494   000F92                     DDRA            equ	3986	;# 
   495   000F93                     TRISB           equ	3987	;# 
   496   000F93                     DDRB            equ	3987	;# 
   497   000F94                     TRISC           equ	3988	;# 
   498   000F94                     DDRC            equ	3988	;# 
   499   000F95                     TRISD           equ	3989	;# 
   500   000F95                     DDRD            equ	3989	;# 
   501   000F96                     TRISE           equ	3990	;# 
   502   000F96                     DDRE            equ	3990	;# 
   503   000F9B                     OSCTUNE         equ	3995	;# 
   504   000F9D                     PIE1            equ	3997	;# 
   505   000F9E                     PIR1            equ	3998	;# 
   506   000F9F                     IPR1            equ	3999	;# 
   507   000FA0                     PIE2            equ	4000	;# 
   508   000FA1                     PIR2            equ	4001	;# 
   509   000FA2                     IPR2            equ	4002	;# 
   510   000FA6                     EECON1          equ	4006	;# 
   511   000FA7                     EECON2          equ	4007	;# 
   512   000FA8                     EEDATA          equ	4008	;# 
   513   000FA9                     EEADR           equ	4009	;# 
   514   000FAB                     RCSTA           equ	4011	;# 
   515   000FAB                     RCSTA1          equ	4011	;# 
   516   000FAC                     TXSTA           equ	4012	;# 
   517   000FAC                     TXSTA1          equ	4012	;# 
   518   000FAD                     TXREG           equ	4013	;# 
   519   000FAD                     TXREG1          equ	4013	;# 
   520   000FAE                     RCREG           equ	4014	;# 
   521   000FAE                     RCREG1          equ	4014	;# 
   522   000FAF                     SPBRG           equ	4015	;# 
   523   000FAF                     SPBRG1          equ	4015	;# 
   524   000FB0                     SPBRGH          equ	4016	;# 
   525   000FB1                     T3CON           equ	4017	;# 
   526   000FB2                     TMR3            equ	4018	;# 
   527   000FB2                     TMR3L           equ	4018	;# 
   528   000FB3                     TMR3H           equ	4019	;# 
   529   000FB4                     CMCON           equ	4020	;# 
   530   000FB5                     CVRCON          equ	4021	;# 
   531   000FB6                     ECCP1AS         equ	4022	;# 
   532   000FB6                     CCP1AS          equ	4022	;# 
   533   000FB7                     ECCP1DEL        equ	4023	;# 
   534   000FB7                     CCP1DEL         equ	4023	;# 
   535   000FB8                     BAUDCON         equ	4024	;# 
   536   000FB8                     BAUDCTL         equ	4024	;# 
   537   000FBA                     CCP2CON         equ	4026	;# 
   538   000FBB                     CCPR2           equ	4027	;# 
   539   000FBB                     CCPR2L          equ	4027	;# 
   540   000FBC                     CCPR2H          equ	4028	;# 
   541   000FBD                     CCP1CON         equ	4029	;# 
   542   000FBD                     ECCP1CON        equ	4029	;# 
   543   000FBE                     CCPR1           equ	4030	;# 
   544   000FBE                     CCPR1L          equ	4030	;# 
   545   000FBF                     CCPR1H          equ	4031	;# 
   546   000FC0                     ADCON2          equ	4032	;# 
   547   000FC1                     ADCON1          equ	4033	;# 
   548   000FC2                     ADCON0          equ	4034	;# 
   549   000FC3                     ADRES           equ	4035	;# 
   550   000FC3                     ADRESL          equ	4035	;# 
   551   000FC4                     ADRESH          equ	4036	;# 
   552   000FC5                     SSPCON2         equ	4037	;# 
   553   000FC6                     SSPCON1         equ	4038	;# 
   554   000FC7                     SSPSTAT         equ	4039	;# 
   555   000FC8                     SSPADD          equ	4040	;# 
   556   000FC9                     SSPBUF          equ	4041	;# 
   557   000FCA                     T2CON           equ	4042	;# 
   558   000FCB                     PR2             equ	4043	;# 
   559   000FCB                     MEMCON          equ	4043	;# 
   560   000FCC                     TMR2            equ	4044	;# 
   561   000FCD                     T1CON           equ	4045	;# 
   562   000FCE                     TMR1            equ	4046	;# 
   563   000FCE                     TMR1L           equ	4046	;# 
   564   000FCF                     TMR1H           equ	4047	;# 
   565   000FD0                     RCON            equ	4048	;# 
   566   000FD1                     WDTCON          equ	4049	;# 
   567   000FD2                     HLVDCON         equ	4050	;# 
   568   000FD2                     LVDCON          equ	4050	;# 
   569   000FD3                     OSCCON          equ	4051	;# 
   570   000FD5                     T0CON           equ	4053	;# 
   571   000FD6                     TMR0            equ	4054	;# 
   572   000FD6                     TMR0L           equ	4054	;# 
   573   000FD7                     TMR0H           equ	4055	;# 
   574   000FD8                     STATUS          equ	4056	;# 
   575   000FD9                     FSR2            equ	4057	;# 
   576   000FD9                     FSR2L           equ	4057	;# 
   577   000FDA                     FSR2H           equ	4058	;# 
   578   000FDB                     PLUSW2          equ	4059	;# 
   579   000FDC                     PREINC2         equ	4060	;# 
   580   000FDD                     POSTDEC2        equ	4061	;# 
   581   000FDE                     POSTINC2        equ	4062	;# 
   582   000FDF                     INDF2           equ	4063	;# 
   583   000FE0                     BSR             equ	4064	;# 
   584   000FE1                     FSR1            equ	4065	;# 
   585   000FE1                     FSR1L           equ	4065	;# 
   586   000FE2                     FSR1H           equ	4066	;# 
   587   000FE3                     PLUSW1          equ	4067	;# 
   588   000FE4                     PREINC1         equ	4068	;# 
   589   000FE5                     POSTDEC1        equ	4069	;# 
   590   000FE6                     POSTINC1        equ	4070	;# 
   591   000FE7                     INDF1           equ	4071	;# 
   592   000FE8                     WREG            equ	4072	;# 
   593   000FE9                     FSR0            equ	4073	;# 
   594   000FE9                     FSR0L           equ	4073	;# 
   595   000FEA                     FSR0H           equ	4074	;# 
   596   000FEB                     PLUSW0          equ	4075	;# 
   597   000FEC                     PREINC0         equ	4076	;# 
   598   000FED                     POSTDEC0        equ	4077	;# 
   599   000FEE                     POSTINC0        equ	4078	;# 
   600   000FEF                     INDF0           equ	4079	;# 
   601   000FF0                     INTCON3         equ	4080	;# 
   602   000FF1                     INTCON2         equ	4081	;# 
   603   000FF2                     INTCON          equ	4082	;# 
   604   000FF3                     PROD            equ	4083	;# 
   605   000FF3                     PRODL           equ	4083	;# 
   606   000FF4                     PRODH           equ	4084	;# 
   607   000FF5                     TABLAT          equ	4085	;# 
   608   000FF6                     TBLPTR          equ	4086	;# 
   609   000FF6                     TBLPTRL         equ	4086	;# 
   610   000FF7                     TBLPTRH         equ	4087	;# 
   611   000FF8                     TBLPTRU         equ	4088	;# 
   612   000FF9                     PCLAT           equ	4089	;# 
   613   000FF9                     PC              equ	4089	;# 
   614   000FF9                     PCL             equ	4089	;# 
   615   000FFA                     PCLATH          equ	4090	;# 
   616   000FFB                     PCLATU          equ	4091	;# 
   617   000FFC                     STKPTR          equ	4092	;# 
   618   000FFD                     TOS             equ	4093	;# 
   619   000FFD                     TOSL            equ	4093	;# 
   620   000FFE                     TOSH            equ	4094	;# 
   621   000FFF                     TOSU            equ	4095	;# 
   622   000F62                     SPPDATA         equ	3938	;# 
   623   000F63                     SPPCFG          equ	3939	;# 
   624   000F64                     SPPEPS          equ	3940	;# 
   625   000F65                     SPPCON          equ	3941	;# 
   626   000F66                     UFRM            equ	3942	;# 
   627   000F66                     UFRML           equ	3942	;# 
   628   000F67                     UFRMH           equ	3943	;# 
   629   000F68                     UIR             equ	3944	;# 
   630   000F69                     UIE             equ	3945	;# 
   631   000F6A                     UEIR            equ	3946	;# 
   632   000F6B                     UEIE            equ	3947	;# 
   633   000F6C                     USTAT           equ	3948	;# 
   634   000F6D                     UCON            equ	3949	;# 
   635   000F6E                     UADDR           equ	3950	;# 
   636   000F6F                     UCFG            equ	3951	;# 
   637   000F70                     UEP0            equ	3952	;# 
   638   000F71                     UEP1            equ	3953	;# 
   639   000F72                     UEP2            equ	3954	;# 
   640   000F73                     UEP3            equ	3955	;# 
   641   000F74                     UEP4            equ	3956	;# 
   642   000F75                     UEP5            equ	3957	;# 
   643   000F76                     UEP6            equ	3958	;# 
   644   000F77                     UEP7            equ	3959	;# 
   645   000F78                     UEP8            equ	3960	;# 
   646   000F79                     UEP9            equ	3961	;# 
   647   000F7A                     UEP10           equ	3962	;# 
   648   000F7B                     UEP11           equ	3963	;# 
   649   000F7C                     UEP12           equ	3964	;# 
   650   000F7D                     UEP13           equ	3965	;# 
   651   000F7E                     UEP14           equ	3966	;# 
   652   000F7F                     UEP15           equ	3967	;# 
   653   000F80                     PORTA           equ	3968	;# 
   654   000F81                     PORTB           equ	3969	;# 
   655   000F82                     PORTC           equ	3970	;# 
   656   000F83                     PORTD           equ	3971	;# 
   657   000F84                     PORTE           equ	3972	;# 
   658   000F89                     LATA            equ	3977	;# 
   659   000F8A                     LATB            equ	3978	;# 
   660   000F8B                     LATC            equ	3979	;# 
   661   000F8C                     LATD            equ	3980	;# 
   662   000F8D                     LATE            equ	3981	;# 
   663   000F92                     TRISA           equ	3986	;# 
   664   000F92                     DDRA            equ	3986	;# 
   665   000F93                     TRISB           equ	3987	;# 
   666   000F93                     DDRB            equ	3987	;# 
   667   000F94                     TRISC           equ	3988	;# 
   668   000F94                     DDRC            equ	3988	;# 
   669   000F95                     TRISD           equ	3989	;# 
   670   000F95                     DDRD            equ	3989	;# 
   671   000F96                     TRISE           equ	3990	;# 
   672   000F96                     DDRE            equ	3990	;# 
   673   000F9B                     OSCTUNE         equ	3995	;# 
   674   000F9D                     PIE1            equ	3997	;# 
   675   000F9E                     PIR1            equ	3998	;# 
   676   000F9F                     IPR1            equ	3999	;# 
   677   000FA0                     PIE2            equ	4000	;# 
   678   000FA1                     PIR2            equ	4001	;# 
   679   000FA2                     IPR2            equ	4002	;# 
   680   000FA6                     EECON1          equ	4006	;# 
   681   000FA7                     EECON2          equ	4007	;# 
   682   000FA8                     EEDATA          equ	4008	;# 
   683   000FA9                     EEADR           equ	4009	;# 
   684   000FAB                     RCSTA           equ	4011	;# 
   685   000FAB                     RCSTA1          equ	4011	;# 
   686   000FAC                     TXSTA           equ	4012	;# 
   687   000FAC                     TXSTA1          equ	4012	;# 
   688   000FAD                     TXREG           equ	4013	;# 
   689   000FAD                     TXREG1          equ	4013	;# 
   690   000FAE                     RCREG           equ	4014	;# 
   691   000FAE                     RCREG1          equ	4014	;# 
   692   000FAF                     SPBRG           equ	4015	;# 
   693   000FAF                     SPBRG1          equ	4015	;# 
   694   000FB0                     SPBRGH          equ	4016	;# 
   695   000FB1                     T3CON           equ	4017	;# 
   696   000FB2                     TMR3            equ	4018	;# 
   697   000FB2                     TMR3L           equ	4018	;# 
   698   000FB3                     TMR3H           equ	4019	;# 
   699   000FB4                     CMCON           equ	4020	;# 
   700   000FB5                     CVRCON          equ	4021	;# 
   701   000FB6                     ECCP1AS         equ	4022	;# 
   702   000FB6                     CCP1AS          equ	4022	;# 
   703   000FB7                     ECCP1DEL        equ	4023	;# 
   704   000FB7                     CCP1DEL         equ	4023	;# 
   705   000FB8                     BAUDCON         equ	4024	;# 
   706   000FB8                     BAUDCTL         equ	4024	;# 
   707   000FBA                     CCP2CON         equ	4026	;# 
   708   000FBB                     CCPR2           equ	4027	;# 
   709   000FBB                     CCPR2L          equ	4027	;# 
   710   000FBC                     CCPR2H          equ	4028	;# 
   711   000FBD                     CCP1CON         equ	4029	;# 
   712   000FBD                     ECCP1CON        equ	4029	;# 
   713   000FBE                     CCPR1           equ	4030	;# 
   714   000FBE                     CCPR1L          equ	4030	;# 
   715   000FBF                     CCPR1H          equ	4031	;# 
   716   000FC0                     ADCON2          equ	4032	;# 
   717   000FC1                     ADCON1          equ	4033	;# 
   718   000FC2                     ADCON0          equ	4034	;# 
   719   000FC3                     ADRES           equ	4035	;# 
   720   000FC3                     ADRESL          equ	4035	;# 
   721   000FC4                     ADRESH          equ	4036	;# 
   722   000FC5                     SSPCON2         equ	4037	;# 
   723   000FC6                     SSPCON1         equ	4038	;# 
   724   000FC7                     SSPSTAT         equ	4039	;# 
   725   000FC8                     SSPADD          equ	4040	;# 
   726   000FC9                     SSPBUF          equ	4041	;# 
   727   000FCA                     T2CON           equ	4042	;# 
   728   000FCB                     PR2             equ	4043	;# 
   729   000FCB                     MEMCON          equ	4043	;# 
   730   000FCC                     TMR2            equ	4044	;# 
   731   000FCD                     T1CON           equ	4045	;# 
   732   000FCE                     TMR1            equ	4046	;# 
   733   000FCE                     TMR1L           equ	4046	;# 
   734   000FCF                     TMR1H           equ	4047	;# 
   735   000FD0                     RCON            equ	4048	;# 
   736   000FD1                     WDTCON          equ	4049	;# 
   737   000FD2                     HLVDCON         equ	4050	;# 
   738   000FD2                     LVDCON          equ	4050	;# 
   739   000FD3                     OSCCON          equ	4051	;# 
   740   000FD5                     T0CON           equ	4053	;# 
   741   000FD6                     TMR0            equ	4054	;# 
   742   000FD6                     TMR0L           equ	4054	;# 
   743   000FD7                     TMR0H           equ	4055	;# 
   744   000FD8                     STATUS          equ	4056	;# 
   745   000FD9                     FSR2            equ	4057	;# 
   746   000FD9                     FSR2L           equ	4057	;# 
   747   000FDA                     FSR2H           equ	4058	;# 
   748   000FDB                     PLUSW2          equ	4059	;# 
   749   000FDC                     PREINC2         equ	4060	;# 
   750   000FDD                     POSTDEC2        equ	4061	;# 
   751   000FDE                     POSTINC2        equ	4062	;# 
   752   000FDF                     INDF2           equ	4063	;# 
   753   000FE0                     BSR             equ	4064	;# 
   754   000FE1                     FSR1            equ	4065	;# 
   755   000FE1                     FSR1L           equ	4065	;# 
   756   000FE2                     FSR1H           equ	4066	;# 
   757   000FE3                     PLUSW1          equ	4067	;# 
   758   000FE4                     PREINC1         equ	4068	;# 
   759   000FE5                     POSTDEC1        equ	4069	;# 
   760   000FE6                     POSTINC1        equ	4070	;# 
   761   000FE7                     INDF1           equ	4071	;# 
   762   000FE8                     WREG            equ	4072	;# 
   763   000FE9                     FSR0            equ	4073	;# 
   764   000FE9                     FSR0L           equ	4073	;# 
   765   000FEA                     FSR0H           equ	4074	;# 
   766   000FEB                     PLUSW0          equ	4075	;# 
   767   000FEC                     PREINC0         equ	4076	;# 
   768   000FED                     POSTDEC0        equ	4077	;# 
   769   000FEE                     POSTINC0        equ	4078	;# 
   770   000FEF                     INDF0           equ	4079	;# 
   771   000FF0                     INTCON3         equ	4080	;# 
   772   000FF1                     INTCON2         equ	4081	;# 
   773   000FF2                     INTCON          equ	4082	;# 
   774   000FF3                     PROD            equ	4083	;# 
   775   000FF3                     PRODL           equ	4083	;# 
   776   000FF4                     PRODH           equ	4084	;# 
   777   000FF5                     TABLAT          equ	4085	;# 
   778   000FF6                     TBLPTR          equ	4086	;# 
   779   000FF6                     TBLPTRL         equ	4086	;# 
   780   000FF7                     TBLPTRH         equ	4087	;# 
   781   000FF8                     TBLPTRU         equ	4088	;# 
   782   000FF9                     PCLAT           equ	4089	;# 
   783   000FF9                     PC              equ	4089	;# 
   784   000FF9                     PCL             equ	4089	;# 
   785   000FFA                     PCLATH          equ	4090	;# 
   786   000FFB                     PCLATU          equ	4091	;# 
   787   000FFC                     STKPTR          equ	4092	;# 
   788   000FFD                     TOS             equ	4093	;# 
   789   000FFD                     TOSL            equ	4093	;# 
   790   000FFE                     TOSH            equ	4094	;# 
   791   000FFF                     TOSU            equ	4095	;# 
   792   000F62                     SPPDATA         equ	3938	;# 
   793   000F63                     SPPCFG          equ	3939	;# 
   794   000F64                     SPPEPS          equ	3940	;# 
   795   000F65                     SPPCON          equ	3941	;# 
   796   000F66                     UFRM            equ	3942	;# 
   797   000F66                     UFRML           equ	3942	;# 
   798   000F67                     UFRMH           equ	3943	;# 
   799   000F68                     UIR             equ	3944	;# 
   800   000F69                     UIE             equ	3945	;# 
   801   000F6A                     UEIR            equ	3946	;# 
   802   000F6B                     UEIE            equ	3947	;# 
   803   000F6C                     USTAT           equ	3948	;# 
   804   000F6D                     UCON            equ	3949	;# 
   805   000F6E                     UADDR           equ	3950	;# 
   806   000F6F                     UCFG            equ	3951	;# 
   807   000F70                     UEP0            equ	3952	;# 
   808   000F71                     UEP1            equ	3953	;# 
   809   000F72                     UEP2            equ	3954	;# 
   810   000F73                     UEP3            equ	3955	;# 
   811   000F74                     UEP4            equ	3956	;# 
   812   000F75                     UEP5            equ	3957	;# 
   813   000F76                     UEP6            equ	3958	;# 
   814   000F77                     UEP7            equ	3959	;# 
   815   000F78                     UEP8            equ	3960	;# 
   816   000F79                     UEP9            equ	3961	;# 
   817   000F7A                     UEP10           equ	3962	;# 
   818   000F7B                     UEP11           equ	3963	;# 
   819   000F7C                     UEP12           equ	3964	;# 
   820   000F7D                     UEP13           equ	3965	;# 
   821   000F7E                     UEP14           equ	3966	;# 
   822   000F7F                     UEP15           equ	3967	;# 
   823   000F80                     PORTA           equ	3968	;# 
   824   000F81                     PORTB           equ	3969	;# 
   825   000F82                     PORTC           equ	3970	;# 
   826   000F83                     PORTD           equ	3971	;# 
   827   000F84                     PORTE           equ	3972	;# 
   828   000F89                     LATA            equ	3977	;# 
   829   000F8A                     LATB            equ	3978	;# 
   830   000F8B                     LATC            equ	3979	;# 
   831   000F8C                     LATD            equ	3980	;# 
   832   000F8D                     LATE            equ	3981	;# 
   833   000F92                     TRISA           equ	3986	;# 
   834   000F92                     DDRA            equ	3986	;# 
   835   000F93                     TRISB           equ	3987	;# 
   836   000F93                     DDRB            equ	3987	;# 
   837   000F94                     TRISC           equ	3988	;# 
   838   000F94                     DDRC            equ	3988	;# 
   839   000F95                     TRISD           equ	3989	;# 
   840   000F95                     DDRD            equ	3989	;# 
   841   000F96                     TRISE           equ	3990	;# 
   842   000F96                     DDRE            equ	3990	;# 
   843   000F9B                     OSCTUNE         equ	3995	;# 
   844   000F9D                     PIE1            equ	3997	;# 
   845   000F9E                     PIR1            equ	3998	;# 
   846   000F9F                     IPR1            equ	3999	;# 
   847   000FA0                     PIE2            equ	4000	;# 
   848   000FA1                     PIR2            equ	4001	;# 
   849   000FA2                     IPR2            equ	4002	;# 
   850   000FA6                     EECON1          equ	4006	;# 
   851   000FA7                     EECON2          equ	4007	;# 
   852   000FA8                     EEDATA          equ	4008	;# 
   853   000FA9                     EEADR           equ	4009	;# 
   854   000FAB                     RCSTA           equ	4011	;# 
   855   000FAB                     RCSTA1          equ	4011	;# 
   856   000FAC                     TXSTA           equ	4012	;# 
   857   000FAC                     TXSTA1          equ	4012	;# 
   858   000FAD                     TXREG           equ	4013	;# 
   859   000FAD                     TXREG1          equ	4013	;# 
   860   000FAE                     RCREG           equ	4014	;# 
   861   000FAE                     RCREG1          equ	4014	;# 
   862   000FAF                     SPBRG           equ	4015	;# 
   863   000FAF                     SPBRG1          equ	4015	;# 
   864   000FB0                     SPBRGH          equ	4016	;# 
   865   000FB1                     T3CON           equ	4017	;# 
   866   000FB2                     TMR3            equ	4018	;# 
   867   000FB2                     TMR3L           equ	4018	;# 
   868   000FB3                     TMR3H           equ	4019	;# 
   869   000FB4                     CMCON           equ	4020	;# 
   870   000FB5                     CVRCON          equ	4021	;# 
   871   000FB6                     ECCP1AS         equ	4022	;# 
   872   000FB6                     CCP1AS          equ	4022	;# 
   873   000FB7                     ECCP1DEL        equ	4023	;# 
   874   000FB7                     CCP1DEL         equ	4023	;# 
   875   000FB8                     BAUDCON         equ	4024	;# 
   876   000FB8                     BAUDCTL         equ	4024	;# 
   877   000FBA                     CCP2CON         equ	4026	;# 
   878   000FBB                     CCPR2           equ	4027	;# 
   879   000FBB                     CCPR2L          equ	4027	;# 
   880   000FBC                     CCPR2H          equ	4028	;# 
   881   000FBD                     CCP1CON         equ	4029	;# 
   882   000FBD                     ECCP1CON        equ	4029	;# 
   883   000FBE                     CCPR1           equ	4030	;# 
   884   000FBE                     CCPR1L          equ	4030	;# 
   885   000FBF                     CCPR1H          equ	4031	;# 
   886   000FC0                     ADCON2          equ	4032	;# 
   887   000FC1                     ADCON1          equ	4033	;# 
   888   000FC2                     ADCON0          equ	4034	;# 
   889   000FC3                     ADRES           equ	4035	;# 
   890   000FC3                     ADRESL          equ	4035	;# 
   891   000FC4                     ADRESH          equ	4036	;# 
   892   000FC5                     SSPCON2         equ	4037	;# 
   893   000FC6                     SSPCON1         equ	4038	;# 
   894   000FC7                     SSPSTAT         equ	4039	;# 
   895   000FC8                     SSPADD          equ	4040	;# 
   896   000FC9                     SSPBUF          equ	4041	;# 
   897   000FCA                     T2CON           equ	4042	;# 
   898   000FCB                     PR2             equ	4043	;# 
   899   000FCB                     MEMCON          equ	4043	;# 
   900   000FCC                     TMR2            equ	4044	;# 
   901   000FCD                     T1CON           equ	4045	;# 
   902   000FCE                     TMR1            equ	4046	;# 
   903   000FCE                     TMR1L           equ	4046	;# 
   904   000FCF                     TMR1H           equ	4047	;# 
   905   000FD0                     RCON            equ	4048	;# 
   906   000FD1                     WDTCON          equ	4049	;# 
   907   000FD2                     HLVDCON         equ	4050	;# 
   908   000FD2                     LVDCON          equ	4050	;# 
   909   000FD3                     OSCCON          equ	4051	;# 
   910   000FD5                     T0CON           equ	4053	;# 
   911   000FD6                     TMR0            equ	4054	;# 
   912   000FD6                     TMR0L           equ	4054	;# 
   913   000FD7                     TMR0H           equ	4055	;# 
   914   000FD8                     STATUS          equ	4056	;# 
   915   000FD9                     FSR2            equ	4057	;# 
   916   000FD9                     FSR2L           equ	4057	;# 
   917   000FDA                     FSR2H           equ	4058	;# 
   918   000FDB                     PLUSW2          equ	4059	;# 
   919   000FDC                     PREINC2         equ	4060	;# 
   920   000FDD                     POSTDEC2        equ	4061	;# 
   921   000FDE                     POSTINC2        equ	4062	;# 
   922   000FDF                     INDF2           equ	4063	;# 
   923   000FE0                     BSR             equ	4064	;# 
   924   000FE1                     FSR1            equ	4065	;# 
   925   000FE1                     FSR1L           equ	4065	;# 
   926   000FE2                     FSR1H           equ	4066	;# 
   927   000FE3                     PLUSW1          equ	4067	;# 
   928   000FE4                     PREINC1         equ	4068	;# 
   929   000FE5                     POSTDEC1        equ	4069	;# 
   930   000FE6                     POSTINC1        equ	4070	;# 
   931   000FE7                     INDF1           equ	4071	;# 
   932   000FE8                     WREG            equ	4072	;# 
   933   000FE9                     FSR0            equ	4073	;# 
   934   000FE9                     FSR0L           equ	4073	;# 
   935   000FEA                     FSR0H           equ	4074	;# 
   936   000FEB                     PLUSW0          equ	4075	;# 
   937   000FEC                     PREINC0         equ	4076	;# 
   938   000FED                     POSTDEC0        equ	4077	;# 
   939   000FEE                     POSTINC0        equ	4078	;# 
   940   000FEF                     INDF0           equ	4079	;# 
   941   000FF0                     INTCON3         equ	4080	;# 
   942   000FF1                     INTCON2         equ	4081	;# 
   943   000FF2                     INTCON          equ	4082	;# 
   944   000FF3                     PROD            equ	4083	;# 
   945   000FF3                     PRODL           equ	4083	;# 
   946   000FF4                     PRODH           equ	4084	;# 
   947   000FF5                     TABLAT          equ	4085	;# 
   948   000FF6                     TBLPTR          equ	4086	;# 
   949   000FF6                     TBLPTRL         equ	4086	;# 
   950   000FF7                     TBLPTRH         equ	4087	;# 
   951   000FF8                     TBLPTRU         equ	4088	;# 
   952   000FF9                     PCLAT           equ	4089	;# 
   953   000FF9                     PC              equ	4089	;# 
   954   000FF9                     PCL             equ	4089	;# 
   955   000FFA                     PCLATH          equ	4090	;# 
   956   000FFB                     PCLATU          equ	4091	;# 
   957   000FFC                     STKPTR          equ	4092	;# 
   958   000FFD                     TOS             equ	4093	;# 
   959   000FFD                     TOSL            equ	4093	;# 
   960   000FFE                     TOSH            equ	4094	;# 
   961   000FFF                     TOSU            equ	4095	;# 
   962                           
   963                           	psect	mediumconst
   964   007DD8                     __pmediumconst:
   965                           	callstack 0
   966   007DD8  00                 	db	0
   967   007DD9                     _Font5x7:
   968                           	callstack 0
   969   007DD9  00                 	db	0
   970   007DDA  00                 	db	0
   971   007DDB  00                 	db	0
   972   007DDC  00                 	db	0
   973   007DDD  00                 	db	0
   974   007DDE  00                 	db	0
   975   007DDF  00                 	db	0
   976   007DE0  5F                 	db	95
   977   007DE1  00                 	db	0
   978   007DE2  00                 	db	0
   979   007DE3  00                 	db	0
   980   007DE4  07                 	db	7
   981   007DE5  00                 	db	0
   982   007DE6  07                 	db	7
   983   007DE7  00                 	db	0
   984   007DE8  14                 	db	20
   985   007DE9  7F                 	db	127
   986   007DEA  14                 	db	20
   987   007DEB  7F                 	db	127
   988   007DEC  14                 	db	20
   989   007DED  24                 	db	36
   990   007DEE  2A                 	db	42
   991   007DEF  7F                 	db	127
   992   007DF0  2A                 	db	42
   993   007DF1  12                 	db	18
   994   007DF2  23                 	db	35
   995   007DF3  13                 	db	19
   996   007DF4  08                 	db	8
   997   007DF5  64                 	db	100
   998   007DF6  62                 	db	98
   999   007DF7  36                 	db	54
  1000   007DF8  49                 	db	73
  1001   007DF9  55                 	db	85
  1002   007DFA  22                 	db	34
  1003   007DFB  50                 	db	80
  1004   007DFC  00                 	db	0
  1005   007DFD  05                 	db	5
  1006   007DFE  03                 	db	3
  1007   007DFF  00                 	db	0
  1008   007E00  00                 	db	0
  1009   007E01  00                 	db	0
  1010   007E02  1C                 	db	28
  1011   007E03  22                 	db	34
  1012   007E04  41                 	db	65
  1013   007E05  00                 	db	0
  1014   007E06  00                 	db	0
  1015   007E07  41                 	db	65
  1016   007E08  22                 	db	34
  1017   007E09  1C                 	db	28
  1018   007E0A  00                 	db	0
  1019   007E0B  14                 	db	20
  1020   007E0C  08                 	db	8
  1021   007E0D  3E                 	db	62
  1022   007E0E  08                 	db	8
  1023   007E0F  14                 	db	20
  1024   007E10  08                 	db	8
  1025   007E11  08                 	db	8
  1026   007E12  3E                 	db	62
  1027   007E13  08                 	db	8
  1028   007E14  08                 	db	8
  1029   007E15  00                 	db	0
  1030   007E16  50                 	db	80
  1031   007E17  30                 	db	48
  1032   007E18  00                 	db	0
  1033   007E19  00                 	db	0
  1034   007E1A  08                 	db	8
  1035   007E1B  08                 	db	8
  1036   007E1C  08                 	db	8
  1037   007E1D  08                 	db	8
  1038   007E1E  08                 	db	8
  1039   007E1F  00                 	db	0
  1040   007E20  60                 	db	96
  1041   007E21  60                 	db	96
  1042   007E22  00                 	db	0
  1043   007E23  00                 	db	0
  1044   007E24  20                 	db	32
  1045   007E25  10                 	db	16
  1046   007E26  08                 	db	8
  1047   007E27  04                 	db	4
  1048   007E28  02                 	db	2
  1049   007E29  3E                 	db	62
  1050   007E2A  51                 	db	81
  1051   007E2B  49                 	db	73
  1052   007E2C  45                 	db	69
  1053   007E2D  3E                 	db	62
  1054   007E2E  00                 	db	0
  1055   007E2F  42                 	db	66
  1056   007E30  7F                 	db	127
  1057   007E31  40                 	db	64
  1058   007E32  00                 	db	0
  1059   007E33  42                 	db	66
  1060   007E34  61                 	db	97
  1061   007E35  51                 	db	81
  1062   007E36  49                 	db	73
  1063   007E37  46                 	db	70
  1064   007E38  21                 	db	33
  1065   007E39  41                 	db	65
  1066   007E3A  45                 	db	69
  1067   007E3B  4B                 	db	75
  1068   007E3C  31                 	db	49
  1069   007E3D  18                 	db	24
  1070   007E3E  14                 	db	20
  1071   007E3F  12                 	db	18
  1072   007E40  7F                 	db	127
  1073   007E41  10                 	db	16
  1074   007E42  27                 	db	39
  1075   007E43  45                 	db	69
  1076   007E44  45                 	db	69
  1077   007E45  45                 	db	69
  1078   007E46  39                 	db	57
  1079   007E47  3C                 	db	60
  1080   007E48  4A                 	db	74
  1081   007E49  49                 	db	73
  1082   007E4A  49                 	db	73
  1083   007E4B  30                 	db	48
  1084   007E4C  01                 	db	1
  1085   007E4D  71                 	db	113
  1086   007E4E  09                 	db	9
  1087   007E4F  05                 	db	5
  1088   007E50  03                 	db	3
  1089   007E51  36                 	db	54
  1090   007E52  49                 	db	73
  1091   007E53  49                 	db	73
  1092   007E54  49                 	db	73
  1093   007E55  36                 	db	54
  1094   007E56  06                 	db	6
  1095   007E57  49                 	db	73
  1096   007E58  49                 	db	73
  1097   007E59  29                 	db	41
  1098   007E5A  1E                 	db	30
  1099   007E5B  00                 	db	0
  1100   007E5C  36                 	db	54
  1101   007E5D  36                 	db	54
  1102   007E5E  00                 	db	0
  1103   007E5F  00                 	db	0
  1104   007E60  00                 	db	0
  1105   007E61  56                 	db	86
  1106   007E62  36                 	db	54
  1107   007E63  00                 	db	0
  1108   007E64  00                 	db	0
  1109   007E65  08                 	db	8
  1110   007E66  14                 	db	20
  1111   007E67  22                 	db	34
  1112   007E68  41                 	db	65
  1113   007E69  00                 	db	0
  1114   007E6A  14                 	db	20
  1115   007E6B  14                 	db	20
  1116   007E6C  14                 	db	20
  1117   007E6D  14                 	db	20
  1118   007E6E  14                 	db	20
  1119   007E6F  00                 	db	0
  1120   007E70  41                 	db	65
  1121   007E71  22                 	db	34
  1122   007E72  14                 	db	20
  1123   007E73  08                 	db	8
  1124   007E74  02                 	db	2
  1125   007E75  01                 	db	1
  1126   007E76  51                 	db	81
  1127   007E77  09                 	db	9
  1128   007E78  06                 	db	6
  1129   007E79  32                 	db	50
  1130   007E7A  49                 	db	73
  1131   007E7B  79                 	db	121
  1132   007E7C  41                 	db	65
  1133   007E7D  3E                 	db	62
  1134   007E7E  7E                 	db	126
  1135   007E7F  11                 	db	17
  1136   007E80  11                 	db	17
  1137   007E81  11                 	db	17
  1138   007E82  7E                 	db	126
  1139   007E83  7F                 	db	127
  1140   007E84  49                 	db	73
  1141   007E85  49                 	db	73
  1142   007E86  49                 	db	73
  1143   007E87  36                 	db	54
  1144   007E88  3E                 	db	62
  1145   007E89  41                 	db	65
  1146   007E8A  41                 	db	65
  1147   007E8B  41                 	db	65
  1148   007E8C  22                 	db	34
  1149   007E8D  7F                 	db	127
  1150   007E8E  41                 	db	65
  1151   007E8F  41                 	db	65
  1152   007E90  22                 	db	34
  1153   007E91  1C                 	db	28
  1154   007E92  7F                 	db	127
  1155   007E93  49                 	db	73
  1156   007E94  49                 	db	73
  1157   007E95  49                 	db	73
  1158   007E96  41                 	db	65
  1159   007E97  7F                 	db	127
  1160   007E98  09                 	db	9
  1161   007E99  09                 	db	9
  1162   007E9A  09                 	db	9
  1163   007E9B  01                 	db	1
  1164   007E9C  3E                 	db	62
  1165   007E9D  41                 	db	65
  1166   007E9E  49                 	db	73
  1167   007E9F  49                 	db	73
  1168   007EA0  7A                 	db	122
  1169   007EA1  7F                 	db	127
  1170   007EA2  08                 	db	8
  1171   007EA3  08                 	db	8
  1172   007EA4  08                 	db	8
  1173   007EA5  7F                 	db	127
  1174   007EA6  00                 	db	0
  1175   007EA7  41                 	db	65
  1176   007EA8  7F                 	db	127
  1177   007EA9  41                 	db	65
  1178   007EAA  00                 	db	0
  1179   007EAB  20                 	db	32
  1180   007EAC  40                 	db	64
  1181   007EAD  41                 	db	65
  1182   007EAE  3F                 	db	63
  1183   007EAF  01                 	db	1
  1184   007EB0  7F                 	db	127
  1185   007EB1  08                 	db	8
  1186   007EB2  14                 	db	20
  1187   007EB3  22                 	db	34
  1188   007EB4  41                 	db	65
  1189   007EB5  7F                 	db	127
  1190   007EB6  40                 	db	64
  1191   007EB7  40                 	db	64
  1192   007EB8  40                 	db	64
  1193   007EB9  40                 	db	64
  1194   007EBA  7F                 	db	127
  1195   007EBB  02                 	db	2
  1196   007EBC  0C                 	db	12
  1197   007EBD  02                 	db	2
  1198   007EBE  7F                 	db	127
  1199   007EBF  7F                 	db	127
  1200   007EC0  04                 	db	4
  1201   007EC1  08                 	db	8
  1202   007EC2  10                 	db	16
  1203   007EC3  7F                 	db	127
  1204   007EC4  3E                 	db	62
  1205   007EC5  41                 	db	65
  1206   007EC6  41                 	db	65
  1207   007EC7  41                 	db	65
  1208   007EC8  3E                 	db	62
  1209   007EC9  7F                 	db	127
  1210   007ECA  09                 	db	9
  1211   007ECB  09                 	db	9
  1212   007ECC  09                 	db	9
  1213   007ECD  06                 	db	6
  1214   007ECE  3E                 	db	62
  1215   007ECF  41                 	db	65
  1216   007ED0  51                 	db	81
  1217   007ED1  21                 	db	33
  1218   007ED2  5E                 	db	94
  1219   007ED3  7F                 	db	127
  1220   007ED4  09                 	db	9
  1221   007ED5  19                 	db	25
  1222   007ED6  29                 	db	41
  1223   007ED7  46                 	db	70
  1224   007ED8  46                 	db	70
  1225   007ED9  49                 	db	73
  1226   007EDA  49                 	db	73
  1227   007EDB  49                 	db	73
  1228   007EDC  31                 	db	49
  1229   007EDD  01                 	db	1
  1230   007EDE  01                 	db	1
  1231   007EDF  7F                 	db	127
  1232   007EE0  01                 	db	1
  1233   007EE1  01                 	db	1
  1234   007EE2  3F                 	db	63
  1235   007EE3  40                 	db	64
  1236   007EE4  40                 	db	64
  1237   007EE5  40                 	db	64
  1238   007EE6  3F                 	db	63
  1239   007EE7  1F                 	db	31
  1240   007EE8  20                 	db	32
  1241   007EE9  40                 	db	64
  1242   007EEA  20                 	db	32
  1243   007EEB  1F                 	db	31
  1244   007EEC  7F                 	db	127
  1245   007EED  20                 	db	32
  1246   007EEE  18                 	db	24
  1247   007EEF  20                 	db	32
  1248   007EF0  7F                 	db	127
  1249   007EF1  63                 	db	99
  1250   007EF2  14                 	db	20
  1251   007EF3  08                 	db	8
  1252   007EF4  14                 	db	20
  1253   007EF5  63                 	db	99
  1254   007EF6  07                 	db	7
  1255   007EF7  08                 	db	8
  1256   007EF8  70                 	db	112
  1257   007EF9  08                 	db	8
  1258   007EFA  07                 	db	7
  1259   007EFB  61                 	db	97
  1260   007EFC  51                 	db	81
  1261   007EFD  49                 	db	73
  1262   007EFE  45                 	db	69
  1263   007EFF  43                 	db	67
  1264   007F00  00                 	db	0
  1265   007F01  7F                 	db	127
  1266   007F02  41                 	db	65
  1267   007F03  41                 	db	65
  1268   007F04  00                 	db	0
  1269   007F05  02                 	db	2
  1270   007F06  04                 	db	4
  1271   007F07  08                 	db	8
  1272   007F08  10                 	db	16
  1273   007F09  20                 	db	32
  1274   007F0A  00                 	db	0
  1275   007F0B  41                 	db	65
  1276   007F0C  41                 	db	65
  1277   007F0D  7F                 	db	127
  1278   007F0E  00                 	db	0
  1279   007F0F  04                 	db	4
  1280   007F10  02                 	db	2
  1281   007F11  01                 	db	1
  1282   007F12  02                 	db	2
  1283   007F13  04                 	db	4
  1284   007F14  40                 	db	64
  1285   007F15  40                 	db	64
  1286   007F16  40                 	db	64
  1287   007F17  40                 	db	64
  1288   007F18  40                 	db	64
  1289   007F19  00                 	db	0
  1290   007F1A  01                 	db	1
  1291   007F1B  02                 	db	2
  1292   007F1C  04                 	db	4
  1293   007F1D  00                 	db	0
  1294   007F1E  20                 	db	32
  1295   007F1F  54                 	db	84
  1296   007F20  54                 	db	84
  1297   007F21  54                 	db	84
  1298   007F22  78                 	db	120
  1299   007F23  7F                 	db	127
  1300   007F24  48                 	db	72
  1301   007F25  44                 	db	68
  1302   007F26  44                 	db	68
  1303   007F27  38                 	db	56
  1304   007F28  38                 	db	56
  1305   007F29  44                 	db	68
  1306   007F2A  44                 	db	68
  1307   007F2B  44                 	db	68
  1308   007F2C  20                 	db	32
  1309   007F2D  38                 	db	56
  1310   007F2E  44                 	db	68
  1311   007F2F  44                 	db	68
  1312   007F30  48                 	db	72
  1313   007F31  7F                 	db	127
  1314   007F32  38                 	db	56
  1315   007F33  54                 	db	84
  1316   007F34  54                 	db	84
  1317   007F35  54                 	db	84
  1318   007F36  18                 	db	24
  1319   007F37  08                 	db	8
  1320   007F38  7E                 	db	126
  1321   007F39  09                 	db	9
  1322   007F3A  01                 	db	1
  1323   007F3B  02                 	db	2
  1324   007F3C  0C                 	db	12
  1325   007F3D  52                 	db	82
  1326   007F3E  52                 	db	82
  1327   007F3F  52                 	db	82
  1328   007F40  3E                 	db	62
  1329   007F41  7F                 	db	127
  1330   007F42  08                 	db	8
  1331   007F43  04                 	db	4
  1332   007F44  04                 	db	4
  1333   007F45  78                 	db	120
  1334   007F46  00                 	db	0
  1335   007F47  44                 	db	68
  1336   007F48  7D                 	db	125
  1337   007F49  40                 	db	64
  1338   007F4A  00                 	db	0
  1339   007F4B  20                 	db	32
  1340   007F4C  40                 	db	64
  1341   007F4D  44                 	db	68
  1342   007F4E  3D                 	db	61
  1343   007F4F  00                 	db	0
  1344   007F50  7F                 	db	127
  1345   007F51  10                 	db	16
  1346   007F52  28                 	db	40
  1347   007F53  44                 	db	68
  1348   007F54  00                 	db	0
  1349   007F55  00                 	db	0
  1350   007F56  41                 	db	65
  1351   007F57  7F                 	db	127
  1352   007F58  40                 	db	64
  1353   007F59  00                 	db	0
  1354   007F5A  7C                 	db	124
  1355   007F5B  04                 	db	4
  1356   007F5C  18                 	db	24
  1357   007F5D  04                 	db	4
  1358   007F5E  78                 	db	120
  1359   007F5F  7C                 	db	124
  1360   007F60  08                 	db	8
  1361   007F61  04                 	db	4
  1362   007F62  04                 	db	4
  1363   007F63  78                 	db	120
  1364   007F64  38                 	db	56
  1365   007F65  44                 	db	68
  1366   007F66  44                 	db	68
  1367   007F67  44                 	db	68
  1368   007F68  38                 	db	56
  1369   007F69  7C                 	db	124
  1370   007F6A  14                 	db	20
  1371   007F6B  14                 	db	20
  1372   007F6C  14                 	db	20
  1373   007F6D  08                 	db	8
  1374   007F6E  08                 	db	8
  1375   007F6F  14                 	db	20
  1376   007F70  14                 	db	20
  1377   007F71  18                 	db	24
  1378   007F72  7C                 	db	124
  1379   007F73  7C                 	db	124
  1380   007F74  08                 	db	8
  1381   007F75  04                 	db	4
  1382   007F76  04                 	db	4
  1383   007F77  08                 	db	8
  1384   007F78  48                 	db	72
  1385   007F79  54                 	db	84
  1386   007F7A  54                 	db	84
  1387   007F7B  54                 	db	84
  1388   007F7C  20                 	db	32
  1389   007F7D  04                 	db	4
  1390   007F7E  3F                 	db	63
  1391   007F7F  44                 	db	68
  1392   007F80  40                 	db	64
  1393   007F81  20                 	db	32
  1394   007F82  3C                 	db	60
  1395   007F83  40                 	db	64
  1396   007F84  40                 	db	64
  1397   007F85  20                 	db	32
  1398   007F86  7C                 	db	124
  1399   007F87  1C                 	db	28
  1400   007F88  20                 	db	32
  1401   007F89  40                 	db	64
  1402   007F8A  20                 	db	32
  1403   007F8B  1C                 	db	28
  1404   007F8C  3C                 	db	60
  1405   007F8D  40                 	db	64
  1406   007F8E  30                 	db	48
  1407   007F8F  40                 	db	64
  1408   007F90  3C                 	db	60
  1409   007F91  44                 	db	68
  1410   007F92  28                 	db	40
  1411   007F93  10                 	db	16
  1412   007F94  28                 	db	40
  1413   007F95  44                 	db	68
  1414   007F96  0C                 	db	12
  1415   007F97  50                 	db	80
  1416   007F98  50                 	db	80
  1417   007F99  50                 	db	80
  1418   007F9A  3C                 	db	60
  1419   007F9B  44                 	db	68
  1420   007F9C  64                 	db	100
  1421   007F9D  54                 	db	84
  1422   007F9E  4C                 	db	76
  1423   007F9F  44                 	db	68
  1424   007FA0  00                 	db	0
  1425   007FA1  08                 	db	8
  1426   007FA2  36                 	db	54
  1427   007FA3  41                 	db	65
  1428   007FA4  00                 	db	0
  1429   007FA5  00                 	db	0
  1430   007FA6  00                 	db	0
  1431   007FA7  7F                 	db	127
  1432   007FA8  00                 	db	0
  1433   007FA9  00                 	db	0
  1434   007FAA  00                 	db	0
  1435   007FAB  41                 	db	65
  1436   007FAC  36                 	db	54
  1437   007FAD  08                 	db	8
  1438   007FAE  00                 	db	0
  1439   007FAF  08                 	db	8
  1440   007FB0  08                 	db	8
  1441   007FB1  2A                 	db	42
  1442   007FB2  1C                 	db	28
  1443   007FB3  08                 	db	8
  1444   007FB4  00                 	db	0
  1445   007FB5  00                 	db	0
  1446   007FB6  00                 	db	0
  1447   007FB7  00                 	db	0
  1448   007FB8  00                 	db	0
  1449   007FB9                     __end_of_Font5x7:
  1450                           	callstack 0
  1451   000F8C                     _LATDbits       set	3980
  1452   000F95                     _TRISDbits      set	3989
  1453   000FB5                     _CVRCON         set	4021
  1454   000FB4                     _CMCON          set	4020
  1455   000FD3                     _OSCCON         set	4051
  1456   000FC3                     _ADRESL         set	4035
  1457   000FC4                     _ADRESH         set	4036
  1458   000FC2                     _ADCON0bits     set	4034
  1459   000FC0                     _ADCON2         set	4032
  1460   000FC1                     _ADCON1         set	4033
  1461   000FC2                     _ADCON0         set	4034
  1462   000F92                     _TRISAbits      set	3986
  1463   000FC9                     _SSPBUF         set	4041
  1464   000FC5                     _SSPCON2bits    set	4037
  1465   000F9E                     _PIR1bits       set	3998
  1466   000FC8                     _SSPADD         set	4040
  1467   000FC6                     _SSPCON1        set	4038
  1468   000FC7                     _SSPSTAT        set	4039
  1469   000F93                     _TRISBbits      set	3987
  1470   000FC7                     _SSPSTATbits    set	4039
  1471   000FC5                     _SSPCON2        set	4037
  1472   007FB9                     STR_3:
  1473   007FB9  4C                 	db	76	;'L'
  1474   007FBA  45                 	db	69	;'E'
  1475   007FBB  44                 	db	68	;'D'
  1476   007FBC  20                 	db	32
  1477   007FBD  4F                 	db	79	;'O'
  1478   007FBE  4E                 	db	78	;'N'
  1479   007FBF  3A                 	db	58	;':'
  1480   007FC0  20                 	db	32
  1481   007FC1  36                 	db	54	;'6'
  1482   007FC2  30                 	db	48	;'0'
  1483   007FC3  30                 	db	48	;'0'
  1484   007FC4  2D                 	db	45
  1485   007FC5  31                 	db	49	;'1'
  1486   007FC6  30                 	db	48	;'0'
  1487   007FC7  32                 	db	50	;'2'
  1488   007FC8  33                 	db	51	;'3'
  1489   007FC9  00                 	db	0
  1490   007FCA                     STR_1:
  1491   007FCA  50                 	db	80	;'P'
  1492   007FCB  52                 	db	82	;'R'
  1493   007FCC  41                 	db	65	;'A'
  1494   007FCD  43                 	db	67	;'C'
  1495   007FCE  54                 	db	84	;'T'
  1496   007FCF  49                 	db	73	;'I'
  1497   007FD0  43                 	db	67	;'C'
  1498   007FD1  41                 	db	65	;'A'
  1499   007FD2  20                 	db	32
  1500   007FD3  41                 	db	65	;'A'
  1501   007FD4  44                 	db	68	;'D'
  1502   007FD5  43                 	db	67	;'C'
  1503   007FD6  00                 	db	0
  1504   007FD7                     STR_2:
  1505   007FD7  50                 	db	80	;'P'
  1506   007FD8  49                 	db	73	;'I'
  1507   007FD9  43                 	db	67	;'C'
  1508   007FDA  31                 	db	49	;'1'
  1509   007FDB  38                 	db	56	;'8'
  1510   007FDC  46                 	db	70	;'F'
  1511   007FDD  34                 	db	52	;'4'
  1512   007FDE  35                 	db	53	;'5'
  1513   007FDF  35                 	db	53	;'5'
  1514   007FE0  30                 	db	48	;'0'
  1515   007FE1  00                 	db	0
  1516   007FE2                     STR_5:
  1517   007FE2  4C                 	db	76	;'L'
  1518   007FE3  45                 	db	69	;'E'
  1519   007FE4  44                 	db	68	;'D'
  1520   007FE5  3A                 	db	58	;':'
  1521   007FE6  20                 	db	32
  1522   007FE7  4F                 	db	79	;'O'
  1523   007FE8  4E                 	db	78	;'N'
  1524   007FE9  20                 	db	32
  1525   007FEA  00                 	db	0
  1526   007FEB                     STR_6:
  1527   007FEB  4C                 	db	76	;'L'
  1528   007FEC  45                 	db	69	;'E'
  1529   007FED  44                 	db	68	;'D'
  1530   007FEE  3A                 	db	58	;':'
  1531   007FEF  20                 	db	32
  1532   007FF0  4F                 	db	79	;'O'
  1533   007FF1  46                 	db	70	;'F'
  1534   007FF2  46                 	db	70	;'F'
  1535   007FF3  00                 	db	0
  1536   007FF4                     STR_4:
  1537   007FF4  41                 	db	65	;'A'
  1538   007FF5  44                 	db	68	;'D'
  1539   007FF6  43                 	db	67	;'C'
  1540   007FF7  3A                 	db	58	;':'
  1541   007FF8  20                 	db	32
  1542   007FF9  00                 	db	0
  1543   007FFA  00                 	db	0	; dummy byte at the end
  1544   007DD8                     __smallconst    set	__pmediumconst
  1545   007DD8                     __mediumconst   set	__pmediumconst
  1546   000002                     __activetblptr  equ	2
  1547                           
  1548                           ; #config settings
  1549                           
  1550                           	psect	cinit
  1551   0076A8                     __pcinit:
  1552                           	callstack 0
  1553   0076A8                     start_initialization:
  1554                           	callstack 0
  1555   0076A8                     __initialization:
  1556                           	callstack 0
  1557                           
  1558                           ; Clear objects allocated to COMRAM (2 bytes)
  1559   0076A8  6A22               	clrf	(__pbssCOMRAM+1)& (0+255),c
  1560   0076AA  6A21               	clrf	__pbssCOMRAM& (0+255),c
  1561   0076AC                     end_of_initialization:
  1562                           	callstack 0
  1563   0076AC                     __end_of__initialization:
  1564                           	callstack 0
  1565   0076AC  0E00               	movlw	low (__Lmediumconst shr (0+16))
  1566   0076AE  6EF8               	movwf	tblptru,c
  1567   0076B0  0100               	movlb	0
  1568   0076B2  EF5C  F03D         	goto	_main	;jump to C main() function
  1569                           
  1570                           	psect	bssCOMRAM
  1571   000021                     __pbssCOMRAM:
  1572                           	callstack 0
  1573   000021                     _oled_page:
  1574                           	callstack 0
  1575   000021                     	ds	1
  1576   000022                     _oled_column:
  1577                           	callstack 0
  1578   000022                     	ds	1
  1579                           
  1580                           	psect	cstackCOMRAM
  1581   000001                     __pcstackCOMRAM:
  1582                           	callstack 0
  1583   000001                     ?___lwdiv:
  1584                           	callstack 0
  1585   000001                     ?___lwmod:
  1586                           	callstack 0
  1587   000001                     ?_ADC_Read:
  1588                           	callstack 0
  1589   000001                     Process_Components@adc_value:
  1590                           	callstack 0
  1591   000001                     ___lwdiv@dividend:
  1592                           	callstack 0
  1593   000001                     ___lwmod@dividend:
  1594                           	callstack 0
  1595   000001                     I2C_Master_Init@clock_hz:
  1596                           	callstack 0
  1597   000001                     ??_I2C_Master_Wait:
  1598   000001                     
  1599                           ; 1 bytes @ 0x0
  1600   000001                     	ds	1
  1601   000002                     I2C_Master_Write@data:
  1602                           	callstack 0
  1603   000002                     
  1604                           ; 1 bytes @ 0x1
  1605   000002                     	ds	1
  1606   000003                     SSD1306_Command@command:
  1607                           	callstack 0
  1608   000003                     SSD1306_Data@data:
  1609                           	callstack 0
  1610   000003                     Process_Components@led_state:
  1611                           	callstack 0
  1612   000003                     ___lwdiv@divisor:
  1613                           	callstack 0
  1614   000003                     ___lwmod@divisor:
  1615                           	callstack 0
  1616   000003                     ??_ADC_Read:
  1617   000003                     
  1618                           ; 1 bytes @ 0x2
  1619   000003                     	ds	1
  1620   000004                     SSD1306_SetCursor@page:
  1621                           	callstack 0
  1622                           
  1623                           ; 1 bytes @ 0x3
  1624   000004                     	ds	1
  1625   000005                     ADC_Read@channel:
  1626                           	callstack 0
  1627   000005                     SSD1306_SetCursor@column:
  1628                           	callstack 0
  1629   000005                     ___lwmod@counter:
  1630                           	callstack 0
  1631   000005                     ___lwdiv@quotient:
  1632                           	callstack 0
  1633   000005                     
  1634                           ; 1 bytes @ 0x4
  1635   000005                     	ds	1
  1636   000006                     SSD1306_ClearDisplay@column:
  1637                           	callstack 0
  1638   000006                     SSD1306_ClearLine@column:
  1639                           	callstack 0
  1640   000006                     ??_SSD1306_WriteChar:
  1641                           
  1642                           ; 1 bytes @ 0x5
  1643   000006                     	ds	1
  1644   000007                     SSD1306_ClearDisplay@page:
  1645                           	callstack 0
  1646   000007                     SSD1306_ClearLine@page:
  1647                           	callstack 0
  1648   000007                     ___lwdiv@counter:
  1649                           	callstack 0
  1650                           
  1651                           ; 1 bytes @ 0x6
  1652   000007                     	ds	1
  1653   000008                     UInt16_To_String@value:
  1654                           	callstack 0
  1655   000008                     ??_SSD1306_Init:
  1656                           
  1657                           ; 1 bytes @ 0x7
  1658   000008                     	ds	2
  1659   00000A                     UInt16_To_String@buffer:
  1660                           	callstack 0
  1661   00000A                     SSD1306_WriteChar@index:
  1662                           	callstack 0
  1663   00000A                     
  1664                           ; 1 bytes @ 0x9
  1665   00000A                     	ds	1
  1666   00000B                     UInt16_To_String@temp:
  1667                           	callstack 0
  1668   00000B                     
  1669                           ; 1 bytes @ 0xA
  1670   00000B                     	ds	1
  1671   00000C                     SSD1306_WriteChar@c:
  1672                           	callstack 0
  1673                           
  1674                           ; 1 bytes @ 0xB
  1675   00000C                     	ds	1
  1676   00000D                     SSD1306_WriteChar@i:
  1677                           	callstack 0
  1678                           
  1679                           ; 1 bytes @ 0xC
  1680   00000D                     	ds	1
  1681   00000E                     SSD1306_WriteChar@character:
  1682                           	callstack 0
  1683                           
  1684                           ; 1 bytes @ 0xD
  1685   00000E                     	ds	1
  1686   00000F                     SSD1306_WriteString@str:
  1687                           	callstack 0
  1688                           
  1689                           ; 2 bytes @ 0xE
  1690   00000F                     	ds	2
  1691   000011                     UInt16_To_String@j:
  1692                           	callstack 0
  1693   000011                     
  1694                           ; 1 bytes @ 0x10
  1695   000011                     	ds	1
  1696   000012                     UInt16_To_String@i:
  1697                           	callstack 0
  1698                           
  1699                           ; 1 bytes @ 0x11
  1700   000012                     	ds	1
  1701   000013                     Display_Update@adc_value:
  1702                           	callstack 0
  1703                           
  1704                           ; 2 bytes @ 0x12
  1705   000013                     	ds	2
  1706   000015                     Display_Update@led_state:
  1707                           	callstack 0
  1708                           
  1709                           ; 1 bytes @ 0x14
  1710   000015                     	ds	1
  1711   000016                     Display_Update@adc_text:
  1712                           	callstack 0
  1713   000016                     
  1714                           ; 1 bytes @ 0x15
  1715   000016                     	ds	6
  1716   00001C                     ??_main:
  1717                           
  1718                           ; 1 bytes @ 0x1B
  1719   00001C                     	ds	2
  1720   00001E                     main@led_state:
  1721                           	callstack 0
  1722                           
  1723                           ; 1 bytes @ 0x1D
  1724   00001E                     	ds	1
  1725   00001F                     main@adc_value:
  1726                           	callstack 0
  1727                           
  1728                           ; 2 bytes @ 0x1E
  1729   00001F                     	ds	2
  1730                           
  1731 ;;
  1732 ;;Main: autosize = 0, tempsize = 2, incstack = 0, save=0
  1733 ;;
  1734 ;; *************** function _main *****************
  1735 ;; Defined at:
  1736 ;;		line 19 in file "main.c"
  1737 ;; Parameters:    Size  Location     Type
  1738 ;;		None
  1739 ;; Auto vars:     Size  Location     Type
  1740 ;;  adc_value       2   30[COMRAM] unsigned short 
  1741 ;;  led_state       1   29[COMRAM] unsigned char 
  1742 ;; Return value:  Size  Location     Type
  1743 ;;                  1    wreg      void 
  1744 ;; Registers used:
  1745 ;;		wreg, fsr0l, fsr0h, fsr1l, fsr1h, fsr2l, fsr2h, status,2, status,0, tblptrl, tblptrh, tblptru, prodl, prodh, cstack
  1746 ;; Tracked objects:
  1747 ;;		On entry : 0/0
  1748 ;;		On exit  : 0/0
  1749 ;;		Unchanged: 0/0
  1750 ;; Data sizes:     COMRAM   BANK0   BANK1   BANK2   BANK3   BANK4   BANK5   BANK6   BANK7
  1751 ;;      Params:         0       0       0       0       0       0       0       0       0
  1752 ;;      Locals:         3       0       0       0       0       0       0       0       0
  1753 ;;      Temps:          2       0       0       0       0       0       0       0       0
  1754 ;;      Totals:         5       0       0       0       0       0       0       0       0
  1755 ;;Total ram usage:        5 bytes
  1756 ;; Hardware stack levels required when called: 6
  1757 ;; This function calls:
  1758 ;;		_ADC_Read
  1759 ;;		_Display_Update
  1760 ;;		_Process_Components
  1761 ;;		_SSD1306_ClearDisplay
  1762 ;;		_SSD1306_SetCursor
  1763 ;;		_SSD1306_WriteString
  1764 ;;		_System_Init
  1765 ;; This function is called by:
  1766 ;;		Startup code after reset
  1767 ;; This function uses a non-reentrant model
  1768 ;;
  1769                           
  1770                           	psect	text0
  1771   007AB8                     __ptext0:
  1772                           	callstack 0
  1773   007AB8                     _main:
  1774                           	callstack 25
  1775   007AB8                     
  1776                           ;main.c: 21:     uint16_t adc_value;;main.c: 22:     uint8_t led_state;;main.c: 24:     
      +                          System_Init();
  1777   007AB8  ECBF  F03B         	call	_System_Init	;wreg free
  1778                           
  1779                           ;main.c: 26:     SSD1306_ClearDisplay();
  1780   007ABC  EC3B  F03C         	call	_SSD1306_ClearDisplay	;wreg free
  1781                           
  1782                           ;main.c: 28:     SSD1306_SetCursor(0, 0);
  1783   007AC0  0E00               	movlw	0
  1784   007AC2  6E04               	movwf	SSD1306_SetCursor@page^0,c
  1785   007AC4  0E00               	movlw	0
  1786   007AC6  EC15  F03C         	call	_SSD1306_SetCursor
  1787   007ACA                     
  1788                           ;main.c: 29:     SSD1306_WriteString("PRACTICA ADC");
  1789   007ACA  0ECA               	movlw	low STR_1
  1790   007ACC  6E0F               	movwf	SSD1306_WriteString@str^0,c
  1791   007ACE  0E7F               	movlw	high STR_1
  1792   007AD0  6E10               	movwf	(SSD1306_WriteString@str+1)^0,c
  1793   007AD2  EC88  F03C         	call	_SSD1306_WriteString	;wreg free
  1794   007AD6                     
  1795                           ;main.c: 31:     SSD1306_SetCursor(0, 1);
  1796   007AD6  0E01               	movlw	1
  1797   007AD8  6E04               	movwf	SSD1306_SetCursor@page^0,c
  1798   007ADA  0E00               	movlw	0
  1799   007ADC  EC15  F03C         	call	_SSD1306_SetCursor
  1800                           
  1801                           ;main.c: 32:     SSD1306_WriteString("PIC18F4550");
  1802   007AE0  0ED7               	movlw	low STR_2
  1803   007AE2  6E0F               	movwf	SSD1306_WriteString@str^0,c
  1804   007AE4  0E7F               	movlw	high STR_2
  1805   007AE6  6E10               	movwf	(SSD1306_WriteString@str+1)^0,c
  1806   007AE8  EC88  F03C         	call	_SSD1306_WriteString	;wreg free
  1807   007AEC                     
  1808                           ;main.c: 34:     SSD1306_SetCursor(0, 6);
  1809   007AEC  0E06               	movlw	6
  1810   007AEE  6E04               	movwf	SSD1306_SetCursor@page^0,c
  1811   007AF0  0E00               	movlw	0
  1812   007AF2  EC15  F03C         	call	_SSD1306_SetCursor
  1813   007AF6                     
  1814                           ;main.c: 35:     SSD1306_WriteString("LED ON: 600-1023");
  1815   007AF6  0EB9               	movlw	low STR_3
  1816   007AF8  6E0F               	movwf	SSD1306_WriteString@str^0,c
  1817   007AFA  0E7F               	movlw	high STR_3
  1818   007AFC  6E10               	movwf	(SSD1306_WriteString@str+1)^0,c
  1819   007AFE  EC88  F03C         	call	_SSD1306_WriteString	;wreg free
  1820   007B02                     l179:
  1821                           
  1822                           ;main.c: 38:     {;main.c: 39:         adc_value = ADC_Read(0);
  1823   007B02  0E00               	movlw	0
  1824   007B04  ECF2  F03B         	call	_ADC_Read
  1825   007B08  C001  F01F         	movff	?_ADC_Read,main@adc_value
  1826   007B0C  C002  F020         	movff	?_ADC_Read+1,main@adc_value+1
  1827                           
  1828                           ;main.c: 41:         led_state = Process_Components(adc_value);
  1829   007B10  C01F  F001         	movff	main@adc_value,Process_Components@adc_value
  1830   007B14  C020  F002         	movff	main@adc_value+1,Process_Components@adc_value+1
  1831   007B18  ECD5  F03B         	call	_Process_Components	;wreg free
  1832   007B1C  6E1E               	movwf	main@led_state^0,c
  1833   007B1E                     
  1834                           ;main.c: 43:         Display_Update(adc_value, led_state);
  1835   007B1E  C01F  F013         	movff	main@adc_value,Display_Update@adc_value
  1836   007B22  C020  F014         	movff	main@adc_value+1,Display_Update@adc_value+1
  1837   007B26  C01E  F015         	movff	main@led_state,Display_Update@led_state
  1838   007B2A  EC22  F03D         	call	_Display_Update	;wreg free
  1839   007B2E                     
  1840                           ;main.c: 45:         _delay((unsigned long)((200)*(8000000UL/4000.0)));
  1841   007B2E  0E03               	movlw	3
  1842   007B30  6E1D               	movwf	(??_main+1)^0,c
  1843   007B32  0E08               	movlw	8
  1844   007B34  6E1C               	movwf	??_main^0,c
  1845   007B36  0E77               	movlw	119
  1846   007B38                     u667:
  1847   007B38  2EE8               	decfsz	wreg,f,c
  1848   007B3A  D7FE               	bra	u667
  1849   007B3C  2E1C               	decfsz	??_main^0,f,c
  1850   007B3E  D7FC               	bra	u667
  1851   007B40  2E1D               	decfsz	(??_main+1)^0,f,c
  1852   007B42  D7FA               	bra	u667
  1853   007B44  0000               	nop	
  1854   007B46  EF81  F03D         	goto	l179
  1855   007B4A  EFFE  F03F         	goto	start
  1856   007B4E                     __end_of_main:
  1857                           	callstack 0
  1858                           
  1859 ;; *************** function _System_Init *****************
  1860 ;; Defined at:
  1861 ;;		line 49 in file "main.c"
  1862 ;; Parameters:    Size  Location     Type
  1863 ;;		None
  1864 ;; Auto vars:     Size  Location     Type
  1865 ;;		None
  1866 ;; Return value:  Size  Location     Type
  1867 ;;                  1    wreg      void 
  1868 ;; Registers used:
  1869 ;;		wreg, status,2, status,0, cstack
  1870 ;; Tracked objects:
  1871 ;;		On entry : 0/0
  1872 ;;		On exit  : 0/0
  1873 ;;		Unchanged: 0/0
  1874 ;; Data sizes:     COMRAM   BANK0   BANK1   BANK2   BANK3   BANK4   BANK5   BANK6   BANK7
  1875 ;;      Params:         0       0       0       0       0       0       0       0       0
  1876 ;;      Locals:         0       0       0       0       0       0       0       0       0
  1877 ;;      Temps:          0       0       0       0       0       0       0       0       0
  1878 ;;      Totals:         0       0       0       0       0       0       0       0       0
  1879 ;;Total ram usage:        0 bytes
  1880 ;; Hardware stack levels used: 1
  1881 ;; Hardware stack levels required when called: 2
  1882 ;; This function calls:
  1883 ;;		_ADC_Init
  1884 ;;		_I2C_Master_Init
  1885 ;;		_SSD1306_Init
  1886 ;; This function is called by:
  1887 ;;		_main
  1888 ;; This function uses a non-reentrant model
  1889 ;;
  1890                           
  1891                           	psect	text1
  1892   00777E                     __ptext1:
  1893                           	callstack 0
  1894   00777E                     _System_Init:
  1895                           	callstack 28
  1896   00777E                     
  1897                           ;main.c: 55:     OSCCON = 0x72;
  1898   00777E  0E72               	movlw	114
  1899   007780  6ED3               	movwf	211,c	;volatile
  1900                           
  1901                           ;main.c: 61:     CMCON = 0x07;
  1902   007782  0E07               	movlw	7
  1903   007784  6EB4               	movwf	180,c	;volatile
  1904   007786                     
  1905                           ;main.c: 62:     CVRCON = 0x00;
  1906   007786  6AB5               	clrf	181,c	;volatile
  1907   007788                     
  1908                           ;main.c: 68:     TRISDbits.TRISD0 = 0;
  1909   007788  9095               	bcf	149,0,c	;volatile
  1910   00778A                     
  1911                           ;main.c: 69:     LATDbits.LATD0 = 0;
  1912   00778A  908C               	bcf	140,0,c	;volatile
  1913   00778C                     
  1914                           ;main.c: 76:     ADC_Init();
  1915   00778C  EC5B  F03B         	call	_ADC_Init	;wreg free
  1916   007790                     
  1917                           ;main.c: 86:     I2C_Master_Init(100000UL);
  1918   007790  0EA0               	movlw	160
  1919   007792  6E01               	movwf	I2C_Master_Init@clock_hz^0,c
  1920   007794  0E86               	movlw	134
  1921   007796  6E02               	movwf	(I2C_Master_Init@clock_hz+1)^0,c
  1922   007798  0E01               	movlw	1
  1923   00779A  6E03               	movwf	(I2C_Master_Init@clock_hz+2)^0,c
  1924   00779C  0E00               	movlw	0
  1925   00779E  6E04               	movwf	(I2C_Master_Init@clock_hz+3)^0,c
  1926   0077A0  EC82  F03B         	call	_I2C_Master_Init	;wreg free
  1927   0077A4                     
  1928                           ;main.c: 92:     SSD1306_Init();
  1929   0077A4  EC02  F03E         	call	_SSD1306_Init	;wreg free
  1930   0077A8  0012               	return		;funcret
  1931   0077AA                     __end_of_System_Init:
  1932                           	callstack 0
  1933                           
  1934 ;; *************** function _SSD1306_Init *****************
  1935 ;; Defined at:
  1936 ;;		line 273 in file "ssd1306.c"
  1937 ;; Parameters:    Size  Location     Type
  1938 ;;		None
  1939 ;; Auto vars:     Size  Location     Type
  1940 ;;		None
  1941 ;; Return value:  Size  Location     Type
  1942 ;;                  1    wreg      void 
  1943 ;; Registers used:
  1944 ;;		wreg, status,2, status,0, cstack
  1945 ;; Tracked objects:
  1946 ;;		On entry : 0/0
  1947 ;;		On exit  : 0/0
  1948 ;;		Unchanged: 0/0
  1949 ;; Data sizes:     COMRAM   BANK0   BANK1   BANK2   BANK3   BANK4   BANK5   BANK6   BANK7
  1950 ;;      Params:         0       0       0       0       0       0       0       0       0
  1951 ;;      Locals:         0       0       0       0       0       0       0       0       0
  1952 ;;      Temps:          2       0       0       0       0       0       0       0       0
  1953 ;;      Totals:         2       0       0       0       0       0       0       0       0
  1954 ;;Total ram usage:        2 bytes
  1955 ;; Hardware stack levels used: 1
  1956 ;; Hardware stack levels required when called: 1
  1957 ;; This function calls:
  1958 ;;		_SSD1306_ClearDisplay
  1959 ;;		_SSD1306_Command
  1960 ;; This function is called by:
  1961 ;;		_System_Init
  1962 ;; This function uses a non-reentrant model
  1963 ;;
  1964                           
  1965                           	psect	text2
  1966   007C04                     __ptext2:
  1967                           	callstack 0
  1968   007C04                     _SSD1306_Init:
  1969                           	callstack 28
  1970   007C04                     
  1971                           ;ssd1306.c: 275:     _delay((unsigned long)((100)*(8000000UL/4000.0)));
  1972   007C04  0E02               	movlw	2
  1973   007C06  6E09               	movwf	(??_SSD1306_Init+1)^0,c
  1974   007C08  0E04               	movlw	4
  1975   007C0A  6E08               	movwf	??_SSD1306_Init^0,c
  1976   007C0C  0EBA               	movlw	186
  1977   007C0E                     u677:
  1978   007C0E  2EE8               	decfsz	wreg,f,c
  1979   007C10  D7FE               	bra	u677
  1980   007C12  2E08               	decfsz	??_SSD1306_Init^0,f,c
  1981   007C14  D7FC               	bra	u677
  1982   007C16  2E09               	decfsz	(??_SSD1306_Init+1)^0,f,c
  1983   007C18  D7FA               	bra	u677
  1984   007C1A  D000               	nop2	
  1985   007C1C                     
  1986                           ;ssd1306.c: 277:     SSD1306_Command(0xAE);
  1987   007C1C  0EAE               	movlw	174
  1988   007C1E  EC8D  F03B         	call	_SSD1306_Command
  1989   007C22                     
  1990                           ;ssd1306.c: 279:     SSD1306_Command(0x20);
  1991   007C22  0E20               	movlw	32
  1992   007C24  EC8D  F03B         	call	_SSD1306_Command
  1993   007C28                     
  1994                           ;ssd1306.c: 280:     SSD1306_Command(0x02);
  1995   007C28  0E02               	movlw	2
  1996   007C2A  EC8D  F03B         	call	_SSD1306_Command
  1997   007C2E                     
  1998                           ;ssd1306.c: 282:     SSD1306_Command(0xB0);
  1999   007C2E  0EB0               	movlw	176
  2000   007C30  EC8D  F03B         	call	_SSD1306_Command
  2001   007C34                     
  2002                           ;ssd1306.c: 283:     SSD1306_Command(0xC8);
  2003   007C34  0EC8               	movlw	200
  2004   007C36  EC8D  F03B         	call	_SSD1306_Command
  2005   007C3A                     
  2006                           ;ssd1306.c: 284:     SSD1306_Command(0x00);
  2007   007C3A  0E00               	movlw	0
  2008   007C3C  EC8D  F03B         	call	_SSD1306_Command
  2009   007C40                     
  2010                           ;ssd1306.c: 285:     SSD1306_Command(0x10);
  2011   007C40  0E10               	movlw	16
  2012   007C42  EC8D  F03B         	call	_SSD1306_Command
  2013   007C46                     
  2014                           ;ssd1306.c: 286:     SSD1306_Command(0x40);
  2015   007C46  0E40               	movlw	64
  2016   007C48  EC8D  F03B         	call	_SSD1306_Command
  2017   007C4C                     
  2018                           ;ssd1306.c: 288:     SSD1306_Command(0x81);
  2019   007C4C  0E81               	movlw	129
  2020   007C4E  EC8D  F03B         	call	_SSD1306_Command
  2021   007C52                     
  2022                           ;ssd1306.c: 289:     SSD1306_Command(0x7F);
  2023   007C52  0E7F               	movlw	127
  2024   007C54  EC8D  F03B         	call	_SSD1306_Command
  2025   007C58                     
  2026                           ;ssd1306.c: 291:     SSD1306_Command(0xA1);
  2027   007C58  0EA1               	movlw	161
  2028   007C5A  EC8D  F03B         	call	_SSD1306_Command
  2029   007C5E                     
  2030                           ;ssd1306.c: 292:     SSD1306_Command(0xA6);
  2031   007C5E  0EA6               	movlw	166
  2032   007C60  EC8D  F03B         	call	_SSD1306_Command
  2033   007C64                     
  2034                           ;ssd1306.c: 294:     SSD1306_Command(0xA8);
  2035   007C64  0EA8               	movlw	168
  2036   007C66  EC8D  F03B         	call	_SSD1306_Command
  2037   007C6A                     
  2038                           ;ssd1306.c: 295:     SSD1306_Command(0x3F);
  2039   007C6A  0E3F               	movlw	63
  2040   007C6C  EC8D  F03B         	call	_SSD1306_Command
  2041   007C70                     
  2042                           ;ssd1306.c: 297:     SSD1306_Command(0xA4);
  2043   007C70  0EA4               	movlw	164
  2044   007C72  EC8D  F03B         	call	_SSD1306_Command
  2045   007C76                     
  2046                           ;ssd1306.c: 299:     SSD1306_Command(0xD3);
  2047   007C76  0ED3               	movlw	211
  2048   007C78  EC8D  F03B         	call	_SSD1306_Command
  2049   007C7C                     
  2050                           ;ssd1306.c: 300:     SSD1306_Command(0x00);
  2051   007C7C  0E00               	movlw	0
  2052   007C7E  EC8D  F03B         	call	_SSD1306_Command
  2053   007C82                     
  2054                           ;ssd1306.c: 302:     SSD1306_Command(0xD5);
  2055   007C82  0ED5               	movlw	213
  2056   007C84  EC8D  F03B         	call	_SSD1306_Command
  2057   007C88                     
  2058                           ;ssd1306.c: 303:     SSD1306_Command(0x80);
  2059   007C88  0E80               	movlw	128
  2060   007C8A  EC8D  F03B         	call	_SSD1306_Command
  2061   007C8E                     
  2062                           ;ssd1306.c: 305:     SSD1306_Command(0xD9);
  2063   007C8E  0ED9               	movlw	217
  2064   007C90  EC8D  F03B         	call	_SSD1306_Command
  2065   007C94                     
  2066                           ;ssd1306.c: 306:     SSD1306_Command(0xF1);
  2067   007C94  0EF1               	movlw	241
  2068   007C96  EC8D  F03B         	call	_SSD1306_Command
  2069   007C9A                     
  2070                           ;ssd1306.c: 308:     SSD1306_Command(0xDA);
  2071   007C9A  0EDA               	movlw	218
  2072   007C9C  EC8D  F03B         	call	_SSD1306_Command
  2073   007CA0                     
  2074                           ;ssd1306.c: 309:     SSD1306_Command(0x12);
  2075   007CA0  0E12               	movlw	18
  2076   007CA2  EC8D  F03B         	call	_SSD1306_Command
  2077   007CA6                     
  2078                           ;ssd1306.c: 311:     SSD1306_Command(0xDB);
  2079   007CA6  0EDB               	movlw	219
  2080   007CA8  EC8D  F03B         	call	_SSD1306_Command
  2081   007CAC                     
  2082                           ;ssd1306.c: 312:     SSD1306_Command(0x40);
  2083   007CAC  0E40               	movlw	64
  2084   007CAE  EC8D  F03B         	call	_SSD1306_Command
  2085   007CB2                     
  2086                           ;ssd1306.c: 314:     SSD1306_Command(0x8D);
  2087   007CB2  0E8D               	movlw	141
  2088   007CB4  EC8D  F03B         	call	_SSD1306_Command
  2089   007CB8                     
  2090                           ;ssd1306.c: 315:     SSD1306_Command(0x14);
  2091   007CB8  0E14               	movlw	20
  2092   007CBA  EC8D  F03B         	call	_SSD1306_Command
  2093   007CBE                     
  2094                           ;ssd1306.c: 317:     SSD1306_Command(0xAF);
  2095   007CBE  0EAF               	movlw	175
  2096   007CC0  EC8D  F03B         	call	_SSD1306_Command
  2097   007CC4                     
  2098                           ;ssd1306.c: 319:     SSD1306_ClearDisplay();
  2099   007CC4  EC3B  F03C         	call	_SSD1306_ClearDisplay	;wreg free
  2100   007CC8  0012               	return		;funcret
  2101   007CCA                     __end_of_SSD1306_Init:
  2102                           	callstack 0
  2103                           
  2104 ;; *************** function _SSD1306_ClearDisplay *****************
  2105 ;; Defined at:
  2106 ;;		line 157 in file "ssd1306.c"
  2107 ;; Parameters:    Size  Location     Type
  2108 ;;		None
  2109 ;; Auto vars:     Size  Location     Type
  2110 ;;  page            1    6[COMRAM] unsigned char 
  2111 ;;  column          1    5[COMRAM] unsigned char 
  2112 ;; Return value:  Size  Location     Type
  2113 ;;                  1    wreg      void 
  2114 ;; Registers used:
  2115 ;;		wreg, status,2, status,0, cstack
  2116 ;; Tracked objects:
  2117 ;;		On entry : 0/0
  2118 ;;		On exit  : 0/0
  2119 ;;		Unchanged: 0/0
  2120 ;; Data sizes:     COMRAM   BANK0   BANK1   BANK2   BANK3   BANK4   BANK5   BANK6   BANK7
  2121 ;;      Params:         0       0       0       0       0       0       0       0       0
  2122 ;;      Locals:         2       0       0       0       0       0       0       0       0
  2123 ;;      Temps:          0       0       0       0       0       0       0       0       0
  2124 ;;      Totals:         2       0       0       0       0       0       0       0       0
  2125 ;;Total ram usage:        2 bytes
  2126 ;; Hardware stack levels used: 1
  2127 ;; This function calls:
  2128 ;;		_SSD1306_Data
  2129 ;;		_SSD1306_SetCursor
  2130 ;;		_SSD1306_StartData
  2131 ;;		_SSD1306_StopData
  2132 ;; This function is called by:
  2133 ;;		_SSD1306_Init
  2134 ;;		_main
  2135 ;; This function uses a non-reentrant model
  2136 ;;
  2137                           
  2138                           	psect	text3
  2139   007876                     __ptext3:
  2140                           	callstack 0
  2141   007876                     _SSD1306_ClearDisplay:
  2142                           	callstack 28
  2143   007876                     
  2144                           ;ssd1306.c: 159:     uint8_t page;;ssd1306.c: 160:     uint8_t column;;ssd1306.c: 162:  
      +                             for (page = 0; page < 8; page++)
  2145   007876  6A07               	clrf	SSD1306_ClearDisplay@page^0,c
  2146   007878                     l1365:
  2147                           
  2148                           ;ssd1306.c: 163:     {;ssd1306.c: 164:         SSD1306_SetCursor(0, page);
  2149   007878  C007  F004         	movff	SSD1306_ClearDisplay@page,SSD1306_SetCursor@page
  2150   00787C  0E00               	movlw	0
  2151   00787E  EC15  F03C         	call	_SSD1306_SetCursor
  2152                           
  2153                           ;ssd1306.c: 166:         SSD1306_StartData();
  2154   007882  EC63  F03B         	call	_SSD1306_StartData	;wreg free
  2155   007886                     
  2156                           ;ssd1306.c: 168:         for (column = 0; column < 128; column++)
  2157   007886  6A06               	clrf	SSD1306_ClearDisplay@column^0,c
  2158   007888                     l1373:
  2159                           
  2160                           ;ssd1306.c: 169:         {;ssd1306.c: 170:             SSD1306_Data(0x00);
  2161   007888  0E00               	movlw	0
  2162   00788A  EC4F  F03B         	call	_SSD1306_Data
  2163   00788E                     
  2164                           ;ssd1306.c: 171:         }
  2165   00788E  2A06               	incf	SSD1306_ClearDisplay@column^0,f,c
  2166   007890  0E7F               	movlw	127
  2167   007892  6406               	cpfsgt	SSD1306_ClearDisplay@column^0,c
  2168   007894  EF4E  F03C         	goto	u381
  2169   007898  EF50  F03C         	goto	u380
  2170   00789C                     u381:
  2171   00789C  EF44  F03C         	goto	l1373
  2172   0078A0                     u380:
  2173   0078A0                     
  2174                           ;ssd1306.c: 173:         SSD1306_StopData();
  2175   0078A0  EC4C  F03B         	call	_SSD1306_StopData	;wreg free
  2176   0078A4                     
  2177                           ;ssd1306.c: 174:     }
  2178   0078A4  2A07               	incf	SSD1306_ClearDisplay@page^0,f,c
  2179   0078A6  0E07               	movlw	7
  2180   0078A8  6407               	cpfsgt	SSD1306_ClearDisplay@page^0,c
  2181   0078AA  EF59  F03C         	goto	u391
  2182   0078AE  EF5B  F03C         	goto	u390
  2183   0078B2                     u391:
  2184   0078B2  EF3C  F03C         	goto	l1365
  2185   0078B6                     u390:
  2186   0078B6                     
  2187                           ;ssd1306.c: 176:     SSD1306_SetCursor(0, 0);
  2188   0078B6  0E00               	movlw	0
  2189   0078B8  6E04               	movwf	SSD1306_SetCursor@page^0,c
  2190   0078BA  0E00               	movlw	0
  2191   0078BC  EC15  F03C         	call	_SSD1306_SetCursor
  2192   0078C0  0012               	return		;funcret
  2193   0078C2                     __end_of_SSD1306_ClearDisplay:
  2194                           	callstack 0
  2195                           
  2196 ;; *************** function _I2C_Master_Init *****************
  2197 ;; Defined at:
  2198 ;;		line 15 in file "i2c_master.c"
  2199 ;; Parameters:    Size  Location     Type
  2200 ;;  clock_hz        4    0[COMRAM] unsigned long 
  2201 ;; Auto vars:     Size  Location     Type
  2202 ;;		None
  2203 ;; Return value:  Size  Location     Type
  2204 ;;                  1    wreg      void 
  2205 ;; Registers used:
  2206 ;;		wreg, status,2
  2207 ;; Tracked objects:
  2208 ;;		On entry : 0/0
  2209 ;;		On exit  : 0/0
  2210 ;;		Unchanged: 0/0
  2211 ;; Data sizes:     COMRAM   BANK0   BANK1   BANK2   BANK3   BANK4   BANK5   BANK6   BANK7
  2212 ;;      Params:         4       0       0       0       0       0       0       0       0
  2213 ;;      Locals:         0       0       0       0       0       0       0       0       0
  2214 ;;      Temps:          0       0       0       0       0       0       0       0       0
  2215 ;;      Totals:         4       0       0       0       0       0       0       0       0
  2216 ;;Total ram usage:        4 bytes
  2217 ;; Hardware stack levels used: 1
  2218 ;; This function calls:
  2219 ;;		Nothing
  2220 ;; This function is called by:
  2221 ;;		_System_Init
  2222 ;; This function uses a non-reentrant model
  2223 ;;
  2224                           
  2225                           	psect	text4
  2226   007704                     __ptext4:
  2227                           	callstack 0
  2228   007704                     _I2C_Master_Init:
  2229                           	callstack 29
  2230   007704                     
  2231                           ;i2c_master.c: 15: void I2C_Master_Init(uint32_t clock_hz);i2c_master.c: 16: {;i2c_maste
      +                          r.c: 17:     TRISBbits.TRISB0 = 1;
  2232   007704  8093               	bsf	147,0,c	;volatile
  2233                           
  2234                           ;i2c_master.c: 18:     TRISBbits.TRISB1 = 1;
  2235   007706  8293               	bsf	147,1,c	;volatile
  2236   007708                     
  2237                           ;i2c_master.c: 20:     SSPSTAT = 0x80;
  2238   007708  0E80               	movlw	128
  2239   00770A  6EC7               	movwf	199,c	;volatile
  2240                           
  2241                           ;i2c_master.c: 21:     SSPCON1 = 0b00101000;
  2242   00770C  0E28               	movlw	40
  2243   00770E  6EC6               	movwf	198,c	;volatile
  2244   007710                     
  2245                           ;i2c_master.c: 22:     SSPCON2 = 0x00;
  2246   007710  6AC5               	clrf	197,c	;volatile
  2247                           
  2248                           ;i2c_master.c: 32:     SSPADD = 119u;
  2249   007712  0E77               	movlw	119
  2250   007714  6EC8               	movwf	200,c	;volatile
  2251   007716                     
  2252                           ;i2c_master.c: 34:     PIR1bits.SSPIF = 0;
  2253   007716  969E               	bcf	158,3,c	;volatile
  2254   007718  0012               	return		;funcret
  2255   00771A                     __end_of_I2C_Master_Init:
  2256                           	callstack 0
  2257                           
  2258 ;; *************** function _ADC_Init *****************
  2259 ;; Defined at:
  2260 ;;		line 8 in file "adc.c"
  2261 ;; Parameters:    Size  Location     Type
  2262 ;;		None
  2263 ;; Auto vars:     Size  Location     Type
  2264 ;;		None
  2265 ;; Return value:  Size  Location     Type
  2266 ;;                  1    wreg      void 
  2267 ;; Registers used:
  2268 ;;		wreg, status,2
  2269 ;; Tracked objects:
  2270 ;;		On entry : 0/0
  2271 ;;		On exit  : 0/0
  2272 ;;		Unchanged: 0/0
  2273 ;; Data sizes:     COMRAM   BANK0   BANK1   BANK2   BANK3   BANK4   BANK5   BANK6   BANK7
  2274 ;;      Params:         0       0       0       0       0       0       0       0       0
  2275 ;;      Locals:         0       0       0       0       0       0       0       0       0
  2276 ;;      Temps:          0       0       0       0       0       0       0       0       0
  2277 ;;      Totals:         0       0       0       0       0       0       0       0       0
  2278 ;;Total ram usage:        0 bytes
  2279 ;; Hardware stack levels used: 1
  2280 ;; This function calls:
  2281 ;;		Nothing
  2282 ;; This function is called by:
  2283 ;;		_System_Init
  2284 ;; This function uses a non-reentrant model
  2285 ;;
  2286                           
  2287                           	psect	text5
  2288   0076B6                     __ptext5:
  2289                           	callstack 0
  2290   0076B6                     _ADC_Init:
  2291                           	callstack 29
  2292   0076B6                     
  2293                           ;adc.c: 10:     TRISAbits.TRISA0 = 1;
  2294   0076B6  8092               	bsf	146,0,c	;volatile
  2295   0076B8                     
  2296                           ;adc.c: 18:     ADCON0 = 0x01;
  2297   0076B8  0E01               	movlw	1
  2298   0076BA  6EC2               	movwf	194,c	;volatile
  2299                           
  2300                           ;adc.c: 29:     ADCON1 = 0x0E;
  2301   0076BC  0E0E               	movlw	14
  2302   0076BE  6EC1               	movwf	193,c	;volatile
  2303                           
  2304                           ;adc.c: 38:     ADCON2 = 0xAA;
  2305   0076C0  0EAA               	movlw	170
  2306   0076C2  6EC0               	movwf	192,c	;volatile
  2307   0076C4  0012               	return		;funcret
  2308   0076C6                     __end_of_ADC_Init:
  2309                           	callstack 0
  2310                           
  2311 ;; *************** function _Process_Components *****************
  2312 ;; Defined at:
  2313 ;;		line 95 in file "main.c"
  2314 ;; Parameters:    Size  Location     Type
  2315 ;;  adc_value       2    0[COMRAM] unsigned short 
  2316 ;; Auto vars:     Size  Location     Type
  2317 ;;  led_state       1    2[COMRAM] unsigned char 
  2318 ;; Return value:  Size  Location     Type
  2319 ;;                  1    wreg      unsigned char 
  2320 ;; Registers used:
  2321 ;;		wreg, status,2, status,0
  2322 ;; Tracked objects:
  2323 ;;		On entry : 0/0
  2324 ;;		On exit  : 0/0
  2325 ;;		Unchanged: 0/0
  2326 ;; Data sizes:     COMRAM   BANK0   BANK1   BANK2   BANK3   BANK4   BANK5   BANK6   BANK7
  2327 ;;      Params:         2       0       0       0       0       0       0       0       0
  2328 ;;      Locals:         1       0       0       0       0       0       0       0       0
  2329 ;;      Temps:          0       0       0       0       0       0       0       0       0
  2330 ;;      Totals:         3       0       0       0       0       0       0       0       0
  2331 ;;Total ram usage:        3 bytes
  2332 ;; Hardware stack levels used: 1
  2333 ;; This function calls:
  2334 ;;		Nothing
  2335 ;; This function is called by:
  2336 ;;		_main
  2337 ;; This function uses a non-reentrant model
  2338 ;;
  2339                           
  2340                           	psect	text6
  2341   0077AA                     __ptext6:
  2342                           	callstack 0
  2343   0077AA                     _Process_Components:
  2344                           	callstack 30
  2345   0077AA                     
  2346                           ;main.c: 95: static uint8_t Process_Components(uint16_t adc_value);main.c: 96: {;main.c:
      +                           97:     uint8_t led_state;;main.c: 108:     if ((adc_value >= 600u) && (adc_value <= 10
      +                          23u))
  2347   0077AA  0E58               	movlw	88
  2348   0077AC  5C01               	subwf	Process_Components@adc_value^0,w,c
  2349   0077AE  0E02               	movlw	2
  2350   0077B0  5802               	subwfb	(Process_Components@adc_value+1)^0,w,c
  2351   0077B2  A0D8               	btfss	status,0,c
  2352   0077B4  EFDE  F03B         	goto	u631
  2353   0077B8  EFE0  F03B         	goto	u630
  2354   0077BC                     u631:
  2355   0077BC  EFEE  F03B         	goto	l188
  2356   0077C0                     u630:
  2357   0077C0  0E04               	movlw	4
  2358   0077C2  5C02               	subwf	(Process_Components@adc_value+1)^0,w,c
  2359   0077C4  B0D8               	btfsc	status,0,c
  2360   0077C6  EFE7  F03B         	goto	u641
  2361   0077CA  EFE9  F03B         	goto	u640
  2362   0077CE                     u641:
  2363   0077CE  EFEE  F03B         	goto	l188
  2364   0077D2                     u640:
  2365   0077D2                     
  2366                           ;main.c: 109:     {;main.c: 110:         LATDbits.LATD0 = 1;
  2367   0077D2  808C               	bsf	140,0,c	;volatile
  2368   0077D4                     
  2369                           ;main.c: 111:         led_state = 1;
  2370   0077D4  0E01               	movlw	1
  2371   0077D6  6E03               	movwf	Process_Components@led_state^0,c
  2372                           
  2373                           ;main.c: 112:     }
  2374   0077D8  EFF0  F03B         	goto	l1633
  2375   0077DC                     l188:
  2376                           
  2377                           ;main.c: 114:     {;main.c: 115:         LATDbits.LATD0 = 0;
  2378   0077DC  908C               	bcf	140,0,c	;volatile
  2379                           
  2380                           ;main.c: 116:         led_state = 0;
  2381   0077DE  6A03               	clrf	Process_Components@led_state^0,c
  2382   0077E0                     l1633:
  2383                           
  2384                           ;main.c: 119:     return led_state;
  2385   0077E0  5003               	movf	Process_Components@led_state^0,w,c
  2386   0077E2  0012               	return		;funcret
  2387   0077E4                     __end_of_Process_Components:
  2388                           	callstack 0
  2389                           
  2390 ;; *************** function _Display_Update *****************
  2391 ;; Defined at:
  2392 ;;		line 122 in file "main.c"
  2393 ;; Parameters:    Size  Location     Type
  2394 ;;  adc_value       2   18[COMRAM] unsigned short 
  2395 ;;  led_state       1   20[COMRAM] unsigned char 
  2396 ;; Auto vars:     Size  Location     Type
  2397 ;;  adc_text        6   21[COMRAM] unsigned char [6]
  2398 ;; Return value:  Size  Location     Type
  2399 ;;                  1    wreg      void 
  2400 ;; Registers used:
  2401 ;;		wreg, fsr0l, fsr0h, fsr1l, fsr1h, fsr2l, fsr2h, status,2, status,0, tblptrl, tblptrh, tblptru, prodl, prodh, cstack
  2402 ;; Tracked objects:
  2403 ;;		On entry : 0/0
  2404 ;;		On exit  : 0/0
  2405 ;;		Unchanged: 0/0
  2406 ;; Data sizes:     COMRAM   BANK0   BANK1   BANK2   BANK3   BANK4   BANK5   BANK6   BANK7
  2407 ;;      Params:         3       0       0       0       0       0       0       0       0
  2408 ;;      Locals:         6       0       0       0       0       0       0       0       0
  2409 ;;      Temps:          0       0       0       0       0       0       0       0       0
  2410 ;;      Totals:         9       0       0       0       0       0       0       0       0
  2411 ;;Total ram usage:        9 bytes
  2412 ;; Hardware stack levels used: 1
  2413 ;; Hardware stack levels required when called: 5
  2414 ;; This function calls:
  2415 ;;		_SSD1306_ClearLine
  2416 ;;		_SSD1306_SetCursor
  2417 ;;		_SSD1306_WriteString
  2418 ;;		_UInt16_To_String
  2419 ;; This function is called by:
  2420 ;;		_main
  2421 ;; This function uses a non-reentrant model
  2422 ;;
  2423                           
  2424                           	psect	text7
  2425   007A44                     __ptext7:
  2426                           	callstack 0
  2427   007A44                     _Display_Update:
  2428                           	callstack 25
  2429   007A44                     
  2430                           ;main.c: 122: static void Display_Update(uint16_t adc_value, uint8_t led_state);main.c: 
      +                          123: {;main.c: 124:     char adc_text[6];;main.c: 126:     UInt16_To_String(adc_value, a
      +                          dc_text);
  2431   007A44  C013  F008         	movff	Display_Update@adc_value,UInt16_To_String@value
  2432   007A48  C014  F009         	movff	Display_Update@adc_value+1,UInt16_To_String@value+1
  2433   007A4C  0E16               	movlw	low Display_Update@adc_text
  2434   007A4E  6E0A               	movwf	UInt16_To_String@buffer^0,c
  2435   007A50  ECA7  F03D         	call	_UInt16_To_String	;wreg free
  2436   007A54                     
  2437                           ;main.c: 128:     SSD1306_ClearLine(3);
  2438   007A54  0E03               	movlw	3
  2439   007A56  EC61  F03C         	call	_SSD1306_ClearLine
  2440   007A5A                     
  2441                           ;main.c: 129:     SSD1306_SetCursor(0, 3);
  2442   007A5A  0E03               	movlw	3
  2443   007A5C  6E04               	movwf	SSD1306_SetCursor@page^0,c
  2444   007A5E  0E00               	movlw	0
  2445   007A60  EC15  F03C         	call	_SSD1306_SetCursor
  2446   007A64                     
  2447                           ;main.c: 130:     SSD1306_WriteString("ADC: ");
  2448   007A64  0EF4               	movlw	low STR_4
  2449   007A66  6E0F               	movwf	SSD1306_WriteString@str^0,c
  2450   007A68  0E7F               	movlw	high STR_4
  2451   007A6A  6E10               	movwf	(SSD1306_WriteString@str+1)^0,c
  2452   007A6C  EC88  F03C         	call	_SSD1306_WriteString	;wreg free
  2453   007A70                     
  2454                           ;main.c: 131:     SSD1306_WriteString(adc_text);
  2455   007A70  0E16               	movlw	low Display_Update@adc_text
  2456   007A72  6E0F               	movwf	SSD1306_WriteString@str^0,c
  2457   007A74  6A10               	clrf	(SSD1306_WriteString@str+1)^0,c
  2458   007A76  EC88  F03C         	call	_SSD1306_WriteString	;wreg free
  2459   007A7A                     
  2460                           ;main.c: 133:     SSD1306_ClearLine(4);
  2461   007A7A  0E04               	movlw	4
  2462   007A7C  EC61  F03C         	call	_SSD1306_ClearLine
  2463   007A80                     
  2464                           ;main.c: 134:     SSD1306_SetCursor(0, 4);
  2465   007A80  0E04               	movlw	4
  2466   007A82  6E04               	movwf	SSD1306_SetCursor@page^0,c
  2467   007A84  0E00               	movlw	0
  2468   007A86  EC15  F03C         	call	_SSD1306_SetCursor
  2469   007A8A                     
  2470                           ;main.c: 136:     if (led_state)
  2471   007A8A  5015               	movf	Display_Update@led_state^0,w,c
  2472   007A8C  B4D8               	btfsc	status,2,c
  2473   007A8E  EF4B  F03D         	goto	u651
  2474   007A92  EF4D  F03D         	goto	u650
  2475   007A96                     u651:
  2476   007A96  EF55  F03D         	goto	l1655
  2477   007A9A                     u650:
  2478   007A9A                     
  2479                           ;main.c: 137:     {;main.c: 138:         SSD1306_WriteString("LED: ON ");
  2480   007A9A  0EE2               	movlw	low STR_5
  2481   007A9C  6E0F               	movwf	SSD1306_WriteString@str^0,c
  2482   007A9E  0E7F               	movlw	high STR_5
  2483   007AA0  6E10               	movwf	(SSD1306_WriteString@str+1)^0,c
  2484   007AA2  EC88  F03C         	call	_SSD1306_WriteString	;wreg free
  2485                           
  2486                           ;main.c: 139:     }
  2487   007AA6  EF5B  F03D         	goto	l195
  2488   007AAA                     l1655:
  2489                           
  2490                           ;main.c: 141:     {;main.c: 142:         SSD1306_WriteString("LED: OFF");
  2491   007AAA  0EEB               	movlw	low STR_6
  2492   007AAC  6E0F               	movwf	SSD1306_WriteString@str^0,c
  2493   007AAE  0E7F               	movlw	high STR_6
  2494   007AB0  6E10               	movwf	(SSD1306_WriteString@str+1)^0,c
  2495   007AB2  EC88  F03C         	call	_SSD1306_WriteString	;wreg free
  2496   007AB6                     l195:
  2497   007AB6  0012               	return		;funcret
  2498   007AB8                     __end_of_Display_Update:
  2499                           	callstack 0
  2500                           
  2501 ;; *************** function _UInt16_To_String *****************
  2502 ;; Defined at:
  2503 ;;		line 146 in file "main.c"
  2504 ;; Parameters:    Size  Location     Type
  2505 ;;  value           2    7[COMRAM] unsigned short 
  2506 ;;  buffer          1    9[COMRAM] PTR unsigned char 
  2507 ;;		 -> Display_Update@adc_text(6), 
  2508 ;; Auto vars:     Size  Location     Type
  2509 ;;  temp            6   10[COMRAM] unsigned char [6]
  2510 ;;  i               1   17[COMRAM] unsigned char 
  2511 ;;  j               1   16[COMRAM] unsigned char 
  2512 ;; Return value:  Size  Location     Type
  2513 ;;                  1    wreg      void 
  2514 ;; Registers used:
  2515 ;;		wreg, fsr1l, fsr1h, fsr2l, fsr2h, status,2, status,0, cstack
  2516 ;; Tracked objects:
  2517 ;;		On entry : 0/0
  2518 ;;		On exit  : 0/0
  2519 ;;		Unchanged: 0/0
  2520 ;; Data sizes:     COMRAM   BANK0   BANK1   BANK2   BANK3   BANK4   BANK5   BANK6   BANK7
  2521 ;;      Params:         3       0       0       0       0       0       0       0       0
  2522 ;;      Locals:         8       0       0       0       0       0       0       0       0
  2523 ;;      Temps:          0       0       0       0       0       0       0       0       0
  2524 ;;      Totals:        11       0       0       0       0       0       0       0       0
  2525 ;;Total ram usage:       11 bytes
  2526 ;; Hardware stack levels used: 1
  2527 ;; Hardware stack levels required when called: 1
  2528 ;; This function calls:
  2529 ;;		___lwdiv
  2530 ;;		___lwmod
  2531 ;; This function is called by:
  2532 ;;		_Display_Update
  2533 ;; This function uses a non-reentrant model
  2534 ;;
  2535                           
  2536                           	psect	text8
  2537   007B4E                     __ptext8:
  2538                           	callstack 0
  2539   007B4E                     _UInt16_To_String:
  2540                           	callstack 28
  2541   007B4E                     
  2542                           ;main.c: 146: static void UInt16_To_String(uint16_t value, char *buffer);main.c: 147: {;
      +                          main.c: 157:     uint8_t i = 0;
  2543   007B4E  6A12               	clrf	UInt16_To_String@i^0,c
  2544                           
  2545                           ;main.c: 158:     uint8_t j = 0;
  2546   007B50  6A11               	clrf	UInt16_To_String@j^0,c
  2547   007B52                     
  2548                           ;main.c: 159:     char temp[6];;main.c: 161:     if (value == 0)
  2549   007B52  5008               	movf	UInt16_To_String@value^0,w,c
  2550   007B54  1009               	iorwf	(UInt16_To_String@value+1)^0,w,c
  2551   007B56  A4D8               	btfss	status,2,c
  2552   007B58  EFB0  F03D         	goto	u581
  2553   007B5C  EFB2  F03D         	goto	u580
  2554   007B60                     u581:
  2555   007B60  EFDD  F03D         	goto	l1585
  2556   007B64                     u580:
  2557   007B64                     
  2558                           ;main.c: 162:     {;main.c: 163:         buffer[0] = '0';
  2559   007B64  500A               	movf	UInt16_To_String@buffer^0,w,c
  2560   007B66  6ED9               	movwf	fsr2l,c
  2561   007B68  6ADA               	clrf	fsr2h,c
  2562   007B6A  0E30               	movlw	48
  2563   007B6C  6EDF               	movwf	indf2,c
  2564   007B6E                     
  2565                           ;main.c: 164:         buffer[1] = '\0';
  2566   007B6E  500A               	movf	UInt16_To_String@buffer^0,w,c
  2567   007B70  6ED9               	movwf	fsr2l,c
  2568   007B72  6ADA               	clrf	fsr2h,c
  2569   007B74  0E01               	movlw	1
  2570   007B76  26D9               	addwf	fsr2l,f,c
  2571   007B78  6ADF               	clrf	indf2,c
  2572   007B7A  EF01  F03E         	goto	l199
  2573   007B7E                     l1579:
  2574                           
  2575                           ;main.c: 169:     {;main.c: 170:         temp[i] = (char)((value % 10) + '0');
  2576   007B7E  5012               	movf	UInt16_To_String@i^0,w,c
  2577   007B80  0F0B               	addlw	low UInt16_To_String@temp
  2578   007B82  6ED9               	movwf	fsr2l,c
  2579   007B84  6ADA               	clrf	fsr2h,c
  2580   007B86  C008  F001         	movff	UInt16_To_String@value,___lwmod@dividend
  2581   007B8A  C009  F002         	movff	UInt16_To_String@value+1,___lwmod@dividend+1
  2582   007B8E  6A04               	clrf	(___lwmod@divisor+1)^0,c
  2583   007B90  0E0A               	movlw	10
  2584   007B92  6E03               	movwf	___lwmod@divisor^0,c
  2585   007B94  ECB7  F03C         	call	___lwmod	;wreg free
  2586   007B98  5001               	movf	?___lwmod^0,w,c
  2587   007B9A  0F30               	addlw	48
  2588   007B9C  6EDF               	movwf	indf2,c
  2589   007B9E                     
  2590                           ;main.c: 171:         value = value / 10;
  2591   007B9E  C008  F001         	movff	UInt16_To_String@value,___lwdiv@dividend
  2592   007BA2  C009  F002         	movff	UInt16_To_String@value+1,___lwdiv@dividend+1
  2593   007BA6  6A04               	clrf	(___lwdiv@divisor+1)^0,c
  2594   007BA8  0E0A               	movlw	10
  2595   007BAA  6E03               	movwf	___lwdiv@divisor^0,c
  2596   007BAC  ECE9  F03C         	call	___lwdiv	;wreg free
  2597   007BB0  C001  F008         	movff	?___lwdiv,UInt16_To_String@value
  2598   007BB4  C002  F009         	movff	?___lwdiv+1,UInt16_To_String@value+1
  2599   007BB8                     
  2600                           ;main.c: 172:         i++;
  2601   007BB8  2A12               	incf	UInt16_To_String@i^0,f,c
  2602   007BBA                     l1585:
  2603                           
  2604                           ;main.c: 168:     while (value > 0)
  2605   007BBA  5008               	movf	UInt16_To_String@value^0,w,c
  2606   007BBC  1009               	iorwf	(UInt16_To_String@value+1)^0,w,c
  2607   007BBE  A4D8               	btfss	status,2,c
  2608   007BC0  EFE4  F03D         	goto	u591
  2609   007BC4  EFE6  F03D         	goto	u590
  2610   007BC8                     u591:
  2611   007BC8  EFBF  F03D         	goto	l1579
  2612   007BCC                     u590:
  2613   007BCC  EFF4  F03D         	goto	l1593
  2614   007BD0                     l1587:
  2615                           
  2616                           ;main.c: 176:     {;main.c: 177:         i--;
  2617   007BD0  0612               	decf	UInt16_To_String@i^0,f,c
  2618   007BD2                     
  2619                           ;main.c: 178:         buffer[j] = temp[i];
  2620   007BD2  5012               	movf	UInt16_To_String@i^0,w,c
  2621   007BD4  0F0B               	addlw	low UInt16_To_String@temp
  2622   007BD6  6ED9               	movwf	fsr2l,c
  2623   007BD8  6ADA               	clrf	fsr2h,c
  2624   007BDA  500A               	movf	UInt16_To_String@buffer^0,w,c
  2625   007BDC  2411               	addwf	UInt16_To_String@j^0,w,c
  2626   007BDE  6EE1               	movwf	fsr1l,c
  2627   007BE0  6AE2               	clrf	fsr1h,c
  2628   007BE2  CFDF FFE7          	movff	indf2,indf1
  2629   007BE6                     
  2630                           ;main.c: 179:         j++;
  2631   007BE6  2A11               	incf	UInt16_To_String@j^0,f,c
  2632   007BE8                     l1593:
  2633                           
  2634                           ;main.c: 175:     while (i > 0)
  2635   007BE8  5012               	movf	UInt16_To_String@i^0,w,c
  2636   007BEA  A4D8               	btfss	status,2,c
  2637   007BEC  EFFA  F03D         	goto	u601
  2638   007BF0  EFFC  F03D         	goto	u600
  2639   007BF4                     u601:
  2640   007BF4  EFE8  F03D         	goto	l1587
  2641   007BF8                     u600:
  2642   007BF8                     
  2643                           ;main.c: 182:     buffer[j] = '\0';
  2644   007BF8  500A               	movf	UInt16_To_String@buffer^0,w,c
  2645   007BFA  2411               	addwf	UInt16_To_String@j^0,w,c
  2646   007BFC  6ED9               	movwf	fsr2l,c
  2647   007BFE  6ADA               	clrf	fsr2h,c
  2648   007C00  6ADF               	clrf	indf2,c
  2649   007C02                     l199:
  2650   007C02  0012               	return		;funcret
  2651   007C04                     __end_of_UInt16_To_String:
  2652                           	callstack 0
  2653                           
  2654 ;; *************** function ___lwmod *****************
  2655 ;; Defined at:
  2656 ;;		line 7 in file "C:\Program Files\Microchip\xc8\v3.10\pic\sources\c99\common\lwmod.c"
  2657 ;; Parameters:    Size  Location     Type
  2658 ;;  dividend        2    0[COMRAM] unsigned int 
  2659 ;;  divisor         2    2[COMRAM] unsigned int 
  2660 ;; Auto vars:     Size  Location     Type
  2661 ;;  counter         1    4[COMRAM] unsigned char 
  2662 ;; Return value:  Size  Location     Type
  2663 ;;                  2    0[COMRAM] unsigned int 
  2664 ;; Registers used:
  2665 ;;		wreg, status,2, status,0
  2666 ;; Tracked objects:
  2667 ;;		On entry : 0/0
  2668 ;;		On exit  : 0/0
  2669 ;;		Unchanged: 0/0
  2670 ;; Data sizes:     COMRAM   BANK0   BANK1   BANK2   BANK3   BANK4   BANK5   BANK6   BANK7
  2671 ;;      Params:         4       0       0       0       0       0       0       0       0
  2672 ;;      Locals:         1       0       0       0       0       0       0       0       0
  2673 ;;      Temps:          0       0       0       0       0       0       0       0       0
  2674 ;;      Totals:         5       0       0       0       0       0       0       0       0
  2675 ;;Total ram usage:        5 bytes
  2676 ;; Hardware stack levels used: 1
  2677 ;; This function calls:
  2678 ;;		Nothing
  2679 ;; This function is called by:
  2680 ;;		_UInt16_To_String
  2681 ;; This function uses a non-reentrant model
  2682 ;;
  2683                           
  2684                           	psect	text9
  2685   00796E                     __ptext9:
  2686                           	callstack 0
  2687   00796E                     ___lwmod:
  2688                           	callstack 28
  2689   00796E  5003               	movf	___lwmod@divisor^0,w,c
  2690   007970  1004               	iorwf	(___lwmod@divisor+1)^0,w,c
  2691   007972  B4D8               	btfsc	status,2,c
  2692   007974  EFBE  F03C         	goto	u501
  2693   007978  EFC0  F03C         	goto	u500
  2694   00797C                     u501:
  2695   00797C  EFE4  F03C         	goto	l819
  2696   007980                     u500:
  2697   007980  0E01               	movlw	1
  2698   007982  6E05               	movwf	___lwmod@counter^0,c
  2699   007984  EFC8  F03C         	goto	l1463
  2700   007988                     l1461:
  2701   007988  90D8               	bcf	status,0,c
  2702   00798A  3603               	rlcf	___lwmod@divisor^0,f,c
  2703   00798C  3604               	rlcf	(___lwmod@divisor+1)^0,f,c
  2704   00798E  2A05               	incf	___lwmod@counter^0,f,c
  2705   007990                     l1463:
  2706   007990  AE04               	btfss	(___lwmod@divisor+1)^0,7,c
  2707   007992  EFCD  F03C         	goto	u511
  2708   007996  EFCF  F03C         	goto	u510
  2709   00799A                     u511:
  2710   00799A  EFC4  F03C         	goto	l1461
  2711   00799E                     u510:
  2712   00799E                     l1465:
  2713   00799E  5003               	movf	___lwmod@divisor^0,w,c
  2714   0079A0  5C01               	subwf	___lwmod@dividend^0,w,c
  2715   0079A2  5004               	movf	(___lwmod@divisor+1)^0,w,c
  2716   0079A4  5802               	subwfb	(___lwmod@dividend+1)^0,w,c
  2717   0079A6  A0D8               	btfss	status,0,c
  2718   0079A8  EFD8  F03C         	goto	u521
  2719   0079AC  EFDA  F03C         	goto	u520
  2720   0079B0                     u521:
  2721   0079B0  EFDE  F03C         	goto	l1469
  2722   0079B4                     u520:
  2723   0079B4  5003               	movf	___lwmod@divisor^0,w,c
  2724   0079B6  5E01               	subwf	___lwmod@dividend^0,f,c
  2725   0079B8  5004               	movf	(___lwmod@divisor+1)^0,w,c
  2726   0079BA  5A02               	subwfb	(___lwmod@dividend+1)^0,f,c
  2727   0079BC                     l1469:
  2728   0079BC  90D8               	bcf	status,0,c
  2729   0079BE  3204               	rrcf	(___lwmod@divisor+1)^0,f,c
  2730   0079C0  3203               	rrcf	___lwmod@divisor^0,f,c
  2731   0079C2  2E05               	decfsz	___lwmod@counter^0,f,c
  2732   0079C4  EFCF  F03C         	goto	l1465
  2733   0079C8                     l819:
  2734   0079C8  C001  F001         	movff	___lwmod@dividend,?___lwmod
  2735   0079CC  C002  F002         	movff	___lwmod@dividend+1,?___lwmod+1
  2736   0079D0  0012               	return		;funcret
  2737   0079D2                     __end_of___lwmod:
  2738                           	callstack 0
  2739                           
  2740 ;; *************** function ___lwdiv *****************
  2741 ;; Defined at:
  2742 ;;		line 7 in file "C:\Program Files\Microchip\xc8\v3.10\pic\sources\c99\common\lwdiv.c"
  2743 ;; Parameters:    Size  Location     Type
  2744 ;;  dividend        2    0[COMRAM] unsigned int 
  2745 ;;  divisor         2    2[COMRAM] unsigned int 
  2746 ;; Auto vars:     Size  Location     Type
  2747 ;;  quotient        2    4[COMRAM] unsigned int 
  2748 ;;  counter         1    6[COMRAM] unsigned char 
  2749 ;; Return value:  Size  Location     Type
  2750 ;;                  2    0[COMRAM] unsigned int 
  2751 ;; Registers used:
  2752 ;;		wreg, status,2, status,0
  2753 ;; Tracked objects:
  2754 ;;		On entry : 0/0
  2755 ;;		On exit  : 0/0
  2756 ;;		Unchanged: 0/0
  2757 ;; Data sizes:     COMRAM   BANK0   BANK1   BANK2   BANK3   BANK4   BANK5   BANK6   BANK7
  2758 ;;      Params:         4       0       0       0       0       0       0       0       0
  2759 ;;      Locals:         3       0       0       0       0       0       0       0       0
  2760 ;;      Temps:          0       0       0       0       0       0       0       0       0
  2761 ;;      Totals:         7       0       0       0       0       0       0       0       0
  2762 ;;Total ram usage:        7 bytes
  2763 ;; Hardware stack levels used: 1
  2764 ;; This function calls:
  2765 ;;		Nothing
  2766 ;; This function is called by:
  2767 ;;		_UInt16_To_String
  2768 ;; This function uses a non-reentrant model
  2769 ;;
  2770                           
  2771                           	psect	text10
  2772   0079D2                     __ptext10:
  2773                           	callstack 0
  2774   0079D2                     ___lwdiv:
  2775                           	callstack 28
  2776   0079D2  6A06               	clrf	(___lwdiv@quotient+1)^0,c
  2777   0079D4  0E00               	movlw	0
  2778   0079D6  6E05               	movwf	___lwdiv@quotient^0,c
  2779   0079D8  5003               	movf	___lwdiv@divisor^0,w,c
  2780   0079DA  1004               	iorwf	(___lwdiv@divisor+1)^0,w,c
  2781   0079DC  B4D8               	btfsc	status,2,c
  2782   0079DE  EFF3  F03C         	goto	u471
  2783   0079E2  EFF5  F03C         	goto	u470
  2784   0079E6                     u471:
  2785   0079E6  EF1D  F03D         	goto	l809
  2786   0079EA                     u470:
  2787   0079EA  0E01               	movlw	1
  2788   0079EC  6E07               	movwf	___lwdiv@counter^0,c
  2789   0079EE  EFFD  F03C         	goto	l1443
  2790   0079F2                     l1441:
  2791   0079F2  90D8               	bcf	status,0,c
  2792   0079F4  3603               	rlcf	___lwdiv@divisor^0,f,c
  2793   0079F6  3604               	rlcf	(___lwdiv@divisor+1)^0,f,c
  2794   0079F8  2A07               	incf	___lwdiv@counter^0,f,c
  2795   0079FA                     l1443:
  2796   0079FA  AE04               	btfss	(___lwdiv@divisor+1)^0,7,c
  2797   0079FC  EF02  F03D         	goto	u481
  2798   007A00  EF04  F03D         	goto	u480
  2799   007A04                     u481:
  2800   007A04  EFF9  F03C         	goto	l1441
  2801   007A08                     u480:
  2802   007A08                     l1445:
  2803   007A08  90D8               	bcf	status,0,c
  2804   007A0A  3605               	rlcf	___lwdiv@quotient^0,f,c
  2805   007A0C  3606               	rlcf	(___lwdiv@quotient+1)^0,f,c
  2806   007A0E  5003               	movf	___lwdiv@divisor^0,w,c
  2807   007A10  5C01               	subwf	___lwdiv@dividend^0,w,c
  2808   007A12  5004               	movf	(___lwdiv@divisor+1)^0,w,c
  2809   007A14  5802               	subwfb	(___lwdiv@dividend+1)^0,w,c
  2810   007A16  A0D8               	btfss	status,0,c
  2811   007A18  EF10  F03D         	goto	u491
  2812   007A1C  EF12  F03D         	goto	u490
  2813   007A20                     u491:
  2814   007A20  EF17  F03D         	goto	l1453
  2815   007A24                     u490:
  2816   007A24  5003               	movf	___lwdiv@divisor^0,w,c
  2817   007A26  5E01               	subwf	___lwdiv@dividend^0,f,c
  2818   007A28  5004               	movf	(___lwdiv@divisor+1)^0,w,c
  2819   007A2A  5A02               	subwfb	(___lwdiv@dividend+1)^0,f,c
  2820   007A2C  8005               	bsf	___lwdiv@quotient^0,0,c
  2821   007A2E                     l1453:
  2822   007A2E  90D8               	bcf	status,0,c
  2823   007A30  3204               	rrcf	(___lwdiv@divisor+1)^0,f,c
  2824   007A32  3203               	rrcf	___lwdiv@divisor^0,f,c
  2825   007A34  2E07               	decfsz	___lwdiv@counter^0,f,c
  2826   007A36  EF04  F03D         	goto	l1445
  2827   007A3A                     l809:
  2828   007A3A  C005  F001         	movff	___lwdiv@quotient,?___lwdiv
  2829   007A3E  C006  F002         	movff	___lwdiv@quotient+1,?___lwdiv+1
  2830   007A42  0012               	return		;funcret
  2831   007A44                     __end_of___lwdiv:
  2832                           	callstack 0
  2833                           
  2834 ;; *************** function _SSD1306_WriteString *****************
  2835 ;; Defined at:
  2836 ;;		line 264 in file "ssd1306.c"
  2837 ;; Parameters:    Size  Location     Type
  2838 ;;  str             2   14[COMRAM] PTR const unsigned char 
  2839 ;;		 -> STR_6(9), STR_5(9), STR_4(6), Display_Update@adc_text(6), 
  2840 ;;		 -> STR_3(17), STR_2(11), STR_1(13), 
  2841 ;; Auto vars:     Size  Location     Type
  2842 ;;		None
  2843 ;; Return value:  Size  Location     Type
  2844 ;;                  1    wreg      void 
  2845 ;; Registers used:
  2846 ;;		wreg, fsr0l, fsr0h, status,2, status,0, tblptrl, tblptrh, tblptru, prodl, prodh, cstack
  2847 ;; Tracked objects:
  2848 ;;		On entry : 0/0
  2849 ;;		On exit  : 0/0
  2850 ;;		Unchanged: 0/0
  2851 ;; Data sizes:     COMRAM   BANK0   BANK1   BANK2   BANK3   BANK4   BANK5   BANK6   BANK7
  2852 ;;      Params:         2       0       0       0       0       0       0       0       0
  2853 ;;      Locals:         0       0       0       0       0       0       0       0       0
  2854 ;;      Temps:          0       0       0       0       0       0       0       0       0
  2855 ;;      Totals:         2       0       0       0       0       0       0       0       0
  2856 ;;Total ram usage:        2 bytes
  2857 ;; Hardware stack levels used: 1
  2858 ;; This function calls:
  2859 ;;		_SSD1306_WriteChar
  2860 ;; This function is called by:
  2861 ;;		_main
  2862 ;;		_Display_Update
  2863 ;; This function uses a non-reentrant model
  2864 ;;
  2865                           
  2866                           	psect	text11
  2867   007910                     __ptext11:
  2868                           	callstack 0
  2869   007910                     _SSD1306_WriteString:
  2870                           	callstack 29
  2871   007910                     
  2872                           ;ssd1306.c: 264: void SSD1306_WriteString(const char *str);ssd1306.c: 265: {;ssd1306.c: 
      +                          266:     while (*str)
  2873   007910  EF9E  F03C         	goto	l1507
  2874   007914                     l1503:
  2875                           
  2876                           ;ssd1306.c: 267:     {;ssd1306.c: 268:         SSD1306_WriteChar(*str);
  2877   007914  C00F  FFF6         	movff	SSD1306_WriteString@str,tblptrl
  2878   007918  C010  FFF7         	movff	SSD1306_WriteString@str+1,tblptrh
  2879   00791C  6AF8               	clrf	tblptru,c
  2880   00791E  0E07               	movlw	(high __ramtop+-1)
  2881   007920  64F7               	cpfsgt	tblptrh,c
  2882   007922  D003               	bra	u557
  2883   007924  0008               	tblrd		*
  2884   007926  50F5               	movf	tablat,w,c
  2885   007928  D005               	bra	u550
  2886   00792A                     u557:
  2887   00792A  CFF6 FFE9          	movff	tblptrl,fsr0l
  2888   00792E  CFF7 FFEA          	movff	tblptrh,fsr0h
  2889   007932  50EF               	movf	indf0,w,c
  2890   007934                     u550:
  2891   007934  EC65  F03E         	call	_SSD1306_WriteChar
  2892   007938                     
  2893                           ;ssd1306.c: 269:         str++;
  2894   007938  4A0F               	infsnz	SSD1306_WriteString@str^0,f,c
  2895   00793A  2A10               	incf	(SSD1306_WriteString@str+1)^0,f,c
  2896   00793C                     l1507:
  2897                           
  2898                           ;ssd1306.c: 266:     while (*str)
  2899   00793C  C00F  FFF6         	movff	SSD1306_WriteString@str,tblptrl
  2900   007940  C010  FFF7         	movff	SSD1306_WriteString@str+1,tblptrh
  2901   007944  6AF8               	clrf	tblptru,c
  2902   007946  0E07               	movlw	(high __ramtop+-1)
  2903   007948  64F7               	cpfsgt	tblptrh,c
  2904   00794A  D003               	bra	u567
  2905   00794C  0008               	tblrd		*
  2906   00794E  50F5               	movf	tablat,w,c
  2907   007950  D005               	bra	u560
  2908   007952                     u567:
  2909   007952  CFF6 FFE9          	movff	tblptrl,fsr0l
  2910   007956  CFF7 FFEA          	movff	tblptrh,fsr0h
  2911   00795A  50EF               	movf	indf0,w,c
  2912   00795C                     u560:
  2913   00795C  0900               	iorlw	0
  2914   00795E  A4D8               	btfss	status,2,c
  2915   007960  EFB4  F03C         	goto	u571
  2916   007964  EFB6  F03C         	goto	u570
  2917   007968                     u571:
  2918   007968  EF8A  F03C         	goto	l1503
  2919   00796C                     u570:
  2920   00796C  0012               	return		;funcret
  2921   00796E                     __end_of_SSD1306_WriteString:
  2922                           	callstack 0
  2923                           
  2924 ;; *************** function _SSD1306_WriteChar *****************
  2925 ;; Defined at:
  2926 ;;		line 202 in file "ssd1306.c"
  2927 ;; Parameters:    Size  Location     Type
  2928 ;;  c               1    wreg     unsigned char 
  2929 ;; Auto vars:     Size  Location     Type
  2930 ;;  c               1   11[COMRAM] unsigned char 
  2931 ;;  index           2    9[COMRAM] unsigned short 
  2932 ;;  character       1   13[COMRAM] unsigned char 
  2933 ;;  i               1   12[COMRAM] unsigned char 
  2934 ;; Return value:  Size  Location     Type
  2935 ;;                  1    wreg      void 
  2936 ;; Registers used:
  2937 ;;		wreg, status,2, status,0, tblptrl, tblptrh, tblptru, prodl, prodh, cstack
  2938 ;; Tracked objects:
  2939 ;;		On entry : 0/0
  2940 ;;		On exit  : 0/0
  2941 ;;		Unchanged: 0/0
  2942 ;; Data sizes:     COMRAM   BANK0   BANK1   BANK2   BANK3   BANK4   BANK5   BANK6   BANK7
  2943 ;;      Params:         0       0       0       0       0       0       0       0       0
  2944 ;;      Locals:         5       0       0       0       0       0       0       0       0
  2945 ;;      Temps:          4       0       0       0       0       0       0       0       0
  2946 ;;      Totals:         9       0       0       0       0       0       0       0       0
  2947 ;;Total ram usage:        9 bytes
  2948 ;; Hardware stack levels used: 1
  2949 ;; Hardware stack levels required when called: 1
  2950 ;; This function calls:
  2951 ;;		_SSD1306_Data
  2952 ;;		_SSD1306_SetCursor
  2953 ;;		_SSD1306_StartData
  2954 ;;		_SSD1306_StopData
  2955 ;; This function is called by:
  2956 ;;		_SSD1306_WriteString
  2957 ;; This function uses a non-reentrant model
  2958 ;;
  2959                           
  2960                           	psect	text12
  2961   007CCA                     __ptext12:
  2962                           	callstack 0
  2963   007CCA                     _SSD1306_WriteChar:
  2964                           	callstack 27
  2965                           
  2966                           ;incstack = 0
  2967                           ;SSD1306_WriteChar@c stored from wreg
  2968   007CCA  6E0C               	movwf	SSD1306_WriteChar@c^0,c
  2969   007CCC                     
  2970                           ;ssd1306.c: 202: void SSD1306_WriteChar(char c);ssd1306.c: 203: {;ssd1306.c: 204:     ui
      +                          nt8_t i;;ssd1306.c: 205:     uint16_t index;;ssd1306.c: 206:     uint8_t character;;ssd1
      +                          306.c: 208:     if (c == '\n')
  2971   007CCC  0E0A               	movlw	10
  2972   007CCE  180C               	xorwf	SSD1306_WriteChar@c^0,w,c
  2973   007CD0  A4D8               	btfss	status,2,c
  2974   007CD2  EF6D  F03E         	goto	u401
  2975   007CD6  EF6F  F03E         	goto	u400
  2976   007CDA                     u401:
  2977   007CDA  EF83  F03E         	goto	l118
  2978   007CDE                     u400:
  2979   007CDE                     
  2980                           ;ssd1306.c: 209:     {;ssd1306.c: 210:         oled_column = 0;
  2981   007CDE  6A22               	clrf	_oled_column^0,c
  2982   007CE0                     
  2983                           ;ssd1306.c: 212:         if (oled_page < 7)
  2984   007CE0  0E07               	movlw	7
  2985   007CE2  6021               	cpfslt	_oled_page^0,c
  2986   007CE4  EF76  F03E         	goto	u411
  2987   007CE8  EF78  F03E         	goto	u410
  2988   007CEC                     u411:
  2989   007CEC  EF7B  F03E         	goto	l119
  2990   007CF0                     u410:
  2991   007CF0                     
  2992                           ;ssd1306.c: 213:         {;ssd1306.c: 214:             oled_page++;
  2993   007CF0  2A21               	incf	_oled_page^0,f,c
  2994                           
  2995                           ;ssd1306.c: 215:         }
  2996   007CF2  EF7C  F03E         	goto	l1395
  2997   007CF6                     l119:
  2998                           
  2999                           ;ssd1306.c: 217:         {;ssd1306.c: 218:             oled_page = 0;
  3000   007CF6  6A21               	clrf	_oled_page^0,c
  3001   007CF8                     l1395:
  3002                           
  3003                           ;ssd1306.c: 221:         SSD1306_SetCursor(oled_column, oled_page);
  3004   007CF8  C021  F004         	movff	_oled_page,SSD1306_SetCursor@page
  3005   007CFC  5022               	movf	_oled_column^0,w,c
  3006   007CFE  EC15  F03C         	call	_SSD1306_SetCursor
  3007   007D02  EFEB  F03E         	goto	l121
  3008   007D06                     l118:
  3009                           
  3010                           ;ssd1306.c: 225:     character = (uint8_t)c;
  3011   007D06  C00C  F00E         	movff	SSD1306_WriteChar@c,SSD1306_WriteChar@character
  3012   007D0A                     
  3013                           ;ssd1306.c: 227:     if (character < 32 || character > 127)
  3014   007D0A  0E1F               	movlw	31
  3015   007D0C  640E               	cpfsgt	SSD1306_WriteChar@character^0,c
  3016   007D0E  EF8B  F03E         	goto	u421
  3017   007D12  EF8D  F03E         	goto	u420
  3018   007D16                     u421:
  3019   007D16  EF95  F03E         	goto	l1403
  3020   007D1A                     u420:
  3021   007D1A  0E7F               	movlw	127
  3022   007D1C  640E               	cpfsgt	SSD1306_WriteChar@character^0,c
  3023   007D1E  EF93  F03E         	goto	u431
  3024   007D22  EF95  F03E         	goto	u430
  3025   007D26                     u431:
  3026   007D26  EF97  F03E         	goto	l1405
  3027   007D2A                     u430:
  3028   007D2A                     l1403:
  3029                           
  3030                           ;ssd1306.c: 228:     {;ssd1306.c: 229:         character = '?';
  3031   007D2A  0E3F               	movlw	63
  3032   007D2C  6E0E               	movwf	SSD1306_WriteChar@character^0,c
  3033   007D2E                     l1405:
  3034                           
  3035                           ;ssd1306.c: 232:     if (oled_column > 122)
  3036   007D2E  0E7A               	movlw	122
  3037   007D30  6422               	cpfsgt	_oled_column^0,c
  3038   007D32  EF9D  F03E         	goto	u441
  3039   007D36  EF9F  F03E         	goto	u440
  3040   007D3A                     u441:
  3041   007D3A  EFB1  F03E         	goto	l1415
  3042   007D3E                     u440:
  3043   007D3E                     
  3044                           ;ssd1306.c: 233:     {;ssd1306.c: 234:         oled_column = 0;
  3045   007D3E  6A22               	clrf	_oled_column^0,c
  3046   007D40                     
  3047                           ;ssd1306.c: 236:         if (oled_page < 7)
  3048   007D40  0E07               	movlw	7
  3049   007D42  6021               	cpfslt	_oled_page^0,c
  3050   007D44  EFA6  F03E         	goto	u451
  3051   007D48  EFA8  F03E         	goto	u450
  3052   007D4C                     u451:
  3053   007D4C  EFAB  F03E         	goto	l126
  3054   007D50                     u450:
  3055   007D50                     
  3056                           ;ssd1306.c: 237:         {;ssd1306.c: 238:             oled_page++;
  3057   007D50  2A21               	incf	_oled_page^0,f,c
  3058                           
  3059                           ;ssd1306.c: 239:         }
  3060   007D52  EFAC  F03E         	goto	l1413
  3061   007D56                     l126:
  3062                           
  3063                           ;ssd1306.c: 241:         {;ssd1306.c: 242:             oled_page = 0;
  3064   007D56  6A21               	clrf	_oled_page^0,c
  3065   007D58                     l1413:
  3066                           
  3067                           ;ssd1306.c: 245:         SSD1306_SetCursor(oled_column, oled_page);
  3068   007D58  C021  F004         	movff	_oled_page,SSD1306_SetCursor@page
  3069   007D5C  5022               	movf	_oled_column^0,w,c
  3070   007D5E  EC15  F03C         	call	_SSD1306_SetCursor
  3071   007D62                     l1415:
  3072                           
  3073                           ;ssd1306.c: 248:     index = ((uint16_t)(character - 32)) * 5;
  3074   007D62  0EE0               	movlw	224
  3075   007D64  240E               	addwf	SSD1306_WriteChar@character^0,w,c
  3076   007D66  6E06               	movwf	??_SSD1306_WriteChar^0,c
  3077   007D68  6A07               	clrf	(??_SSD1306_WriteChar+1)^0,c
  3078   007D6A  0EFF               	movlw	255
  3079   007D6C  2207               	addwfc	(??_SSD1306_WriteChar+1)^0,f,c
  3080   007D6E  0E05               	movlw	5
  3081   007D70  0206               	mulwf	??_SSD1306_WriteChar^0,c
  3082   007D72  CFF3 F008          	movff	prodl,??_SSD1306_WriteChar+2
  3083   007D76  CFF4 F009          	movff	prodh,??_SSD1306_WriteChar+3
  3084   007D7A  0207               	mulwf	(??_SSD1306_WriteChar+1)^0,c
  3085   007D7C  50F3               	movf	prodl,w,c
  3086   007D7E  2609               	addwf	(??_SSD1306_WriteChar+3)^0,f,c
  3087   007D80  C008  F00A         	movff	??_SSD1306_WriteChar+2,SSD1306_WriteChar@index
  3088   007D84  C009  F00B         	movff	??_SSD1306_WriteChar+3,SSD1306_WriteChar@index+1
  3089   007D88                     
  3090                           ;ssd1306.c: 250:     SSD1306_StartData();
  3091   007D88  EC63  F03B         	call	_SSD1306_StartData	;wreg free
  3092   007D8C                     
  3093                           ;ssd1306.c: 252:     for (i = 0; i < 5; i++)
  3094   007D8C  6A0D               	clrf	SSD1306_WriteChar@i^0,c
  3095   007D8E                     l1425:
  3096                           
  3097                           ;ssd1306.c: 253:     {;ssd1306.c: 254:         SSD1306_Data(Font5x7[index + i]);
  3098   007D8E  0ED9               	movlw	low _Font5x7
  3099   007D90  6E06               	movwf	??_SSD1306_WriteChar^0,c
  3100   007D92  0E7D               	movlw	high _Font5x7
  3101   007D94  6E07               	movwf	(??_SSD1306_WriteChar+1)^0,c
  3102   007D96  500D               	movf	SSD1306_WriteChar@i^0,w,c
  3103   007D98  2606               	addwf	??_SSD1306_WriteChar^0,f,c
  3104   007D9A  0E00               	movlw	0
  3105   007D9C  2207               	addwfc	(??_SSD1306_WriteChar+1)^0,f,c
  3106   007D9E  500A               	movf	SSD1306_WriteChar@index^0,w,c
  3107   007DA0  2606               	addwf	??_SSD1306_WriteChar^0,f,c
  3108   007DA2  500B               	movf	(SSD1306_WriteChar@index+1)^0,w,c
  3109   007DA4  2207               	addwfc	(??_SSD1306_WriteChar+1)^0,f,c
  3110   007DA6  C006  FFF6         	movff	??_SSD1306_WriteChar,tblptrl
  3111   007DAA  C007  FFF7         	movff	??_SSD1306_WriteChar+1,tblptrh
  3112   007DAE                     	if	0	;tblptru may be non-zero
  3113   007DAE                     	endif
  3114   007DAE                     	if	0	;tblptru may be non-zero
  3115   007DAE                     	endif
  3116   007DAE  0008               	tblrd		*
  3117   007DB0  50F5               	movf	tablat,w,c
  3118   007DB2  EC4F  F03B         	call	_SSD1306_Data
  3119   007DB6                     
  3120                           ;ssd1306.c: 255:     }
  3121   007DB6  2A0D               	incf	SSD1306_WriteChar@i^0,f,c
  3122   007DB8  0E04               	movlw	4
  3123   007DBA  640D               	cpfsgt	SSD1306_WriteChar@i^0,c
  3124   007DBC  EFE2  F03E         	goto	u461
  3125   007DC0  EFE4  F03E         	goto	u460
  3126   007DC4                     u461:
  3127   007DC4  EFC7  F03E         	goto	l1425
  3128   007DC8                     u460:
  3129   007DC8                     
  3130                           ;ssd1306.c: 257:     SSD1306_Data(0x00);
  3131   007DC8  0E00               	movlw	0
  3132   007DCA  EC4F  F03B         	call	_SSD1306_Data
  3133                           
  3134                           ;ssd1306.c: 259:     SSD1306_StopData();
  3135   007DCE  EC4C  F03B         	call	_SSD1306_StopData	;wreg free
  3136   007DD2                     
  3137                           ;ssd1306.c: 261:     oled_column += 6;
  3138   007DD2  0E06               	movlw	6
  3139   007DD4  2622               	addwf	_oled_column^0,f,c
  3140   007DD6                     l121:
  3141   007DD6  0012               	return		;funcret
  3142   007DD8                     __end_of_SSD1306_WriteChar:
  3143                           	callstack 0
  3144                           
  3145 ;; *************** function _SSD1306_ClearLine *****************
  3146 ;; Defined at:
  3147 ;;		line 179 in file "ssd1306.c"
  3148 ;; Parameters:    Size  Location     Type
  3149 ;;  page            1    wreg     unsigned char 
  3150 ;; Auto vars:     Size  Location     Type
  3151 ;;  page            1    6[COMRAM] unsigned char 
  3152 ;;  column          1    5[COMRAM] unsigned char 
  3153 ;; Return value:  Size  Location     Type
  3154 ;;                  1    wreg      void 
  3155 ;; Registers used:
  3156 ;;		wreg, status,2, status,0, cstack
  3157 ;; Tracked objects:
  3158 ;;		On entry : 0/0
  3159 ;;		On exit  : 0/0
  3160 ;;		Unchanged: 0/0
  3161 ;; Data sizes:     COMRAM   BANK0   BANK1   BANK2   BANK3   BANK4   BANK5   BANK6   BANK7
  3162 ;;      Params:         0       0       0       0       0       0       0       0       0
  3163 ;;      Locals:         2       0       0       0       0       0       0       0       0
  3164 ;;      Temps:          0       0       0       0       0       0       0       0       0
  3165 ;;      Totals:         2       0       0       0       0       0       0       0       0
  3166 ;;Total ram usage:        2 bytes
  3167 ;; Hardware stack levels used: 1
  3168 ;; Hardware stack levels required when called: 4
  3169 ;; This function calls:
  3170 ;;		_SSD1306_Data
  3171 ;;		_SSD1306_SetCursor
  3172 ;;		_SSD1306_StartData
  3173 ;;		_SSD1306_StopData
  3174 ;; This function is called by:
  3175 ;;		_Display_Update
  3176 ;; This function uses a non-reentrant model
  3177 ;;
  3178                           
  3179                           	psect	text13
  3180   0078C2                     __ptext13:
  3181                           	callstack 0
  3182   0078C2                     _SSD1306_ClearLine:
  3183                           	callstack 25
  3184                           
  3185                           ;incstack = 0
  3186                           ;SSD1306_ClearLine@page stored from wreg
  3187   0078C2  6E07               	movwf	SSD1306_ClearLine@page^0,c
  3188   0078C4                     
  3189                           ;ssd1306.c: 179: void SSD1306_ClearLine(uint8_t page);ssd1306.c: 180: {;ssd1306.c: 181: 
      +                              uint8_t column;;ssd1306.c: 183:     if (page > 7)
  3190   0078C4  0E07               	movlw	7
  3191   0078C6  6407               	cpfsgt	SSD1306_ClearLine@page^0,c
  3192   0078C8  EF68  F03C         	goto	u531
  3193   0078CC  EF6A  F03C         	goto	u530
  3194   0078D0                     u531:
  3195   0078D0  EF6C  F03C         	goto	l1485
  3196   0078D4                     u530:
  3197   0078D4  EF87  F03C         	goto	l113
  3198   0078D8                     l1485:
  3199                           
  3200                           ;ssd1306.c: 188:     SSD1306_SetCursor(0, page);
  3201   0078D8  C007  F004         	movff	SSD1306_ClearLine@page,SSD1306_SetCursor@page
  3202   0078DC  0E00               	movlw	0
  3203   0078DE  EC15  F03C         	call	_SSD1306_SetCursor
  3204                           
  3205                           ;ssd1306.c: 190:     SSD1306_StartData();
  3206   0078E2  EC63  F03B         	call	_SSD1306_StartData	;wreg free
  3207   0078E6                     
  3208                           ;ssd1306.c: 192:     for (column = 0; column < 128; column++)
  3209   0078E6  6A06               	clrf	SSD1306_ClearLine@column^0,c
  3210   0078E8                     l1493:
  3211                           
  3212                           ;ssd1306.c: 193:     {;ssd1306.c: 194:         SSD1306_Data(0x00);
  3213   0078E8  0E00               	movlw	0
  3214   0078EA  EC4F  F03B         	call	_SSD1306_Data
  3215   0078EE                     
  3216                           ;ssd1306.c: 195:     }
  3217   0078EE  2A06               	incf	SSD1306_ClearLine@column^0,f,c
  3218   0078F0  0E7F               	movlw	127
  3219   0078F2  6406               	cpfsgt	SSD1306_ClearLine@column^0,c
  3220   0078F4  EF7E  F03C         	goto	u541
  3221   0078F8  EF80  F03C         	goto	u540
  3222   0078FC                     u541:
  3223   0078FC  EF74  F03C         	goto	l1493
  3224   007900                     u540:
  3225   007900                     
  3226                           ;ssd1306.c: 197:     SSD1306_StopData();
  3227   007900  EC4C  F03B         	call	_SSD1306_StopData	;wreg free
  3228                           
  3229                           ;ssd1306.c: 199:     SSD1306_SetCursor(0, page);
  3230   007904  C007  F004         	movff	SSD1306_ClearLine@page,SSD1306_SetCursor@page
  3231   007908  0E00               	movlw	0
  3232   00790A  EC15  F03C         	call	_SSD1306_SetCursor
  3233   00790E                     l113:
  3234   00790E  0012               	return		;funcret
  3235   007910                     __end_of_SSD1306_ClearLine:
  3236                           	callstack 0
  3237                           
  3238 ;; *************** function _SSD1306_StopData *****************
  3239 ;; Defined at:
  3240 ;;		line 127 in file "ssd1306.c"
  3241 ;; Parameters:    Size  Location     Type
  3242 ;;		None
  3243 ;; Auto vars:     Size  Location     Type
  3244 ;;		None
  3245 ;; Return value:  Size  Location     Type
  3246 ;;                  1    wreg      void 
  3247 ;; Registers used:
  3248 ;;		wreg, status,2, status,0, cstack
  3249 ;; Tracked objects:
  3250 ;;		On entry : 0/0
  3251 ;;		On exit  : 0/0
  3252 ;;		Unchanged: 0/0
  3253 ;; Data sizes:     COMRAM   BANK0   BANK1   BANK2   BANK3   BANK4   BANK5   BANK6   BANK7
  3254 ;;      Params:         0       0       0       0       0       0       0       0       0
  3255 ;;      Locals:         0       0       0       0       0       0       0       0       0
  3256 ;;      Temps:          0       0       0       0       0       0       0       0       0
  3257 ;;      Totals:         0       0       0       0       0       0       0       0       0
  3258 ;;Total ram usage:        0 bytes
  3259 ;; Hardware stack levels used: 1
  3260 ;; This function calls:
  3261 ;;		_I2C_Master_Stop
  3262 ;; This function is called by:
  3263 ;;		_SSD1306_ClearDisplay
  3264 ;;		_SSD1306_ClearLine
  3265 ;;		_SSD1306_WriteChar
  3266 ;; This function uses a non-reentrant model
  3267 ;;
  3268                           
  3269                           	psect	text14
  3270   007698                     __ptext14:
  3271                           	callstack 0
  3272   007698                     _SSD1306_StopData:
  3273                           	callstack 27
  3274   007698                     
  3275                           ;ssd1306.c: 129:     I2C_Master_Stop();
  3276   007698  EC77  F03B         	call	_I2C_Master_Stop	;wreg free
  3277   00769C  0012               	return		;funcret
  3278   00769E                     __end_of_SSD1306_StopData:
  3279                           	callstack 0
  3280                           
  3281 ;; *************** function _SSD1306_StartData *****************
  3282 ;; Defined at:
  3283 ;;		line 120 in file "ssd1306.c"
  3284 ;; Parameters:    Size  Location     Type
  3285 ;;		None
  3286 ;; Auto vars:     Size  Location     Type
  3287 ;;		None
  3288 ;; Return value:  Size  Location     Type
  3289 ;;                  1    wreg      void 
  3290 ;; Registers used:
  3291 ;;		wreg, status,2, status,0, cstack
  3292 ;; Tracked objects:
  3293 ;;		On entry : 0/0
  3294 ;;		On exit  : 0/0
  3295 ;;		Unchanged: 0/0
  3296 ;; Data sizes:     COMRAM   BANK0   BANK1   BANK2   BANK3   BANK4   BANK5   BANK6   BANK7
  3297 ;;      Params:         0       0       0       0       0       0       0       0       0
  3298 ;;      Locals:         0       0       0       0       0       0       0       0       0
  3299 ;;      Temps:          0       0       0       0       0       0       0       0       0
  3300 ;;      Totals:         0       0       0       0       0       0       0       0       0
  3301 ;;Total ram usage:        0 bytes
  3302 ;; Hardware stack levels used: 1
  3303 ;; This function calls:
  3304 ;;		_I2C_Master_Start
  3305 ;;		_I2C_Master_Write
  3306 ;; This function is called by:
  3307 ;;		_SSD1306_ClearDisplay
  3308 ;;		_SSD1306_ClearLine
  3309 ;;		_SSD1306_WriteChar
  3310 ;; This function uses a non-reentrant model
  3311 ;;
  3312                           
  3313                           	psect	text15
  3314   0076C6                     __ptext15:
  3315                           	callstack 0
  3316   0076C6                     _SSD1306_StartData:
  3317                           	callstack 27
  3318   0076C6                     
  3319                           ;ssd1306.c: 122:     I2C_Master_Start();
  3320   0076C6  EC6C  F03B         	call	_I2C_Master_Start	;wreg free
  3321                           
  3322                           ;ssd1306.c: 123:     I2C_Master_Write(0x78);
  3323   0076CA  0E78               	movlw	120
  3324   0076CC  EC9C  F03B         	call	_I2C_Master_Write
  3325                           
  3326                           ;ssd1306.c: 124:     I2C_Master_Write(0x40);
  3327   0076D0  0E40               	movlw	64
  3328   0076D2  EC9C  F03B         	call	_I2C_Master_Write
  3329   0076D6  0012               	return		;funcret
  3330   0076D8                     __end_of_SSD1306_StartData:
  3331                           	callstack 0
  3332                           
  3333 ;; *************** function _SSD1306_SetCursor *****************
  3334 ;; Defined at:
  3335 ;;		line 137 in file "ssd1306.c"
  3336 ;; Parameters:    Size  Location     Type
  3337 ;;  column          1    wreg     unsigned char 
  3338 ;;  page            1    3[COMRAM] unsigned char 
  3339 ;; Auto vars:     Size  Location     Type
  3340 ;;  column          1    4[COMRAM] unsigned char 
  3341 ;; Return value:  Size  Location     Type
  3342 ;;                  1    wreg      void 
  3343 ;; Registers used:
  3344 ;;		wreg, status,2, status,0, cstack
  3345 ;; Tracked objects:
  3346 ;;		On entry : 0/0
  3347 ;;		On exit  : 0/0
  3348 ;;		Unchanged: 0/0
  3349 ;; Data sizes:     COMRAM   BANK0   BANK1   BANK2   BANK3   BANK4   BANK5   BANK6   BANK7
  3350 ;;      Params:         1       0       0       0       0       0       0       0       0
  3351 ;;      Locals:         1       0       0       0       0       0       0       0       0
  3352 ;;      Temps:          0       0       0       0       0       0       0       0       0
  3353 ;;      Totals:         2       0       0       0       0       0       0       0       0
  3354 ;;Total ram usage:        2 bytes
  3355 ;; Hardware stack levels used: 1
  3356 ;; This function calls:
  3357 ;;		_SSD1306_Command
  3358 ;; This function is called by:
  3359 ;;		_SSD1306_ClearDisplay
  3360 ;;		_SSD1306_ClearLine
  3361 ;;		_SSD1306_WriteChar
  3362 ;;		_main
  3363 ;;		_Display_Update
  3364 ;; This function uses a non-reentrant model
  3365 ;;
  3366                           
  3367                           	psect	text16
  3368   00782A                     __ptext16:
  3369                           	callstack 0
  3370   00782A                     _SSD1306_SetCursor:
  3371                           	callstack 27
  3372                           
  3373                           ;incstack = 0
  3374                           ;SSD1306_SetCursor@column stored from wreg
  3375   00782A  6E05               	movwf	SSD1306_SetCursor@column^0,c
  3376   00782C                     
  3377                           ;ssd1306.c: 137: void SSD1306_SetCursor(uint8_t column, uint8_t page);ssd1306.c: 138: {;
      +                          ssd1306.c: 139:     if (column > 127)
  3378   00782C  0E7F               	movlw	127
  3379   00782E  6405               	cpfsgt	SSD1306_SetCursor@column^0,c
  3380   007830  EF1C  F03C         	goto	u361
  3381   007834  EF1E  F03C         	goto	u360
  3382   007838                     u361:
  3383   007838  EF1F  F03C         	goto	l1353
  3384   00783C                     u360:
  3385   00783C                     
  3386                           ;ssd1306.c: 140:     {;ssd1306.c: 141:         column = 0;
  3387   00783C  6A05               	clrf	SSD1306_SetCursor@column^0,c
  3388   00783E                     l1353:
  3389                           
  3390                           ;ssd1306.c: 144:     if (page > 7)
  3391   00783E  0E07               	movlw	7
  3392   007840  6404               	cpfsgt	SSD1306_SetCursor@page^0,c
  3393   007842  EF25  F03C         	goto	u371
  3394   007846  EF27  F03C         	goto	u370
  3395   00784A                     u371:
  3396   00784A  EF28  F03C         	goto	l101
  3397   00784E                     u370:
  3398   00784E                     
  3399                           ;ssd1306.c: 145:     {;ssd1306.c: 146:         page = 0;
  3400   00784E  6A04               	clrf	SSD1306_SetCursor@page^0,c
  3401   007850                     l101:
  3402                           
  3403                           ;ssd1306.c: 149:     oled_column = column;
  3404   007850  C005  F022         	movff	SSD1306_SetCursor@column,_oled_column
  3405                           
  3406                           ;ssd1306.c: 150:     oled_page = page;
  3407   007854  C004  F021         	movff	SSD1306_SetCursor@page,_oled_page
  3408   007858                     
  3409                           ;ssd1306.c: 152:     SSD1306_Command(0xB0 + page);
  3410   007858  5004               	movf	SSD1306_SetCursor@page^0,w,c
  3411   00785A  0FB0               	addlw	176
  3412   00785C  EC8D  F03B         	call	_SSD1306_Command
  3413                           
  3414                           ;ssd1306.c: 153:     SSD1306_Command(0x00 + (column & 0x0F));
  3415   007860  5005               	movf	SSD1306_SetCursor@column^0,w,c
  3416   007862  0B0F               	andlw	15
  3417   007864  EC8D  F03B         	call	_SSD1306_Command
  3418                           
  3419                           ;ssd1306.c: 154:     SSD1306_Command(0x10 + ((column >> 4) & 0x0F));
  3420   007868  3805               	swapf	SSD1306_SetCursor@column^0,w,c
  3421   00786A  0B0F               	andlw	15
  3422   00786C  0B0F               	andlw	15
  3423   00786E  0F10               	addlw	16
  3424   007870  EC8D  F03B         	call	_SSD1306_Command
  3425   007874  0012               	return		;funcret
  3426   007876                     __end_of_SSD1306_SetCursor:
  3427                           	callstack 0
  3428                           
  3429 ;; *************** function _SSD1306_Command *****************
  3430 ;; Defined at:
  3431 ;;		line 111 in file "ssd1306.c"
  3432 ;; Parameters:    Size  Location     Type
  3433 ;;  command         1    wreg     unsigned char 
  3434 ;; Auto vars:     Size  Location     Type
  3435 ;;  command         1    2[COMRAM] unsigned char 
  3436 ;; Return value:  Size  Location     Type
  3437 ;;                  1    wreg      void 
  3438 ;; Registers used:
  3439 ;;		wreg, status,2, status,0, cstack
  3440 ;; Tracked objects:
  3441 ;;		On entry : 0/0
  3442 ;;		On exit  : 0/0
  3443 ;;		Unchanged: 0/0
  3444 ;; Data sizes:     COMRAM   BANK0   BANK1   BANK2   BANK3   BANK4   BANK5   BANK6   BANK7
  3445 ;;      Params:         0       0       0       0       0       0       0       0       0
  3446 ;;      Locals:         1       0       0       0       0       0       0       0       0
  3447 ;;      Temps:          0       0       0       0       0       0       0       0       0
  3448 ;;      Totals:         1       0       0       0       0       0       0       0       0
  3449 ;;Total ram usage:        1 bytes
  3450 ;; Hardware stack levels used: 1
  3451 ;; This function calls:
  3452 ;;		_I2C_Master_Start
  3453 ;;		_I2C_Master_Stop
  3454 ;;		_I2C_Master_Write
  3455 ;; This function is called by:
  3456 ;;		_SSD1306_SetCursor
  3457 ;;		_SSD1306_Init
  3458 ;; This function uses a non-reentrant model
  3459 ;;
  3460                           
  3461                           	psect	text17
  3462   00771A                     __ptext17:
  3463                           	callstack 0
  3464   00771A                     _SSD1306_Command:
  3465                           	callstack 26
  3466                           
  3467                           ;incstack = 0
  3468                           ;SSD1306_Command@command stored from wreg
  3469   00771A  6E03               	movwf	SSD1306_Command@command^0,c
  3470   00771C                     
  3471                           ;ssd1306.c: 111: static void SSD1306_Command(uint8_t command);ssd1306.c: 112: {;ssd1306.
      +                          c: 113:     I2C_Master_Start();
  3472   00771C  EC6C  F03B         	call	_I2C_Master_Start	;wreg free
  3473                           
  3474                           ;ssd1306.c: 114:     I2C_Master_Write(0x78);
  3475   007720  0E78               	movlw	120
  3476   007722  EC9C  F03B         	call	_I2C_Master_Write
  3477                           
  3478                           ;ssd1306.c: 115:     I2C_Master_Write(0x00);
  3479   007726  0E00               	movlw	0
  3480   007728  EC9C  F03B         	call	_I2C_Master_Write
  3481                           
  3482                           ;ssd1306.c: 116:     I2C_Master_Write(command);
  3483   00772C  5003               	movf	SSD1306_Command@command^0,w,c
  3484   00772E  EC9C  F03B         	call	_I2C_Master_Write
  3485                           
  3486                           ;ssd1306.c: 117:     I2C_Master_Stop();
  3487   007732  EC77  F03B         	call	_I2C_Master_Stop	;wreg free
  3488   007736  0012               	return		;funcret
  3489   007738                     __end_of_SSD1306_Command:
  3490                           	callstack 0
  3491                           
  3492 ;; *************** function _I2C_Master_Stop *****************
  3493 ;; Defined at:
  3494 ;;		line 44 in file "i2c_master.c"
  3495 ;; Parameters:    Size  Location     Type
  3496 ;;		None
  3497 ;; Auto vars:     Size  Location     Type
  3498 ;;		None
  3499 ;; Return value:  Size  Location     Type
  3500 ;;                  1    wreg      void 
  3501 ;; Registers used:
  3502 ;;		wreg, status,2, status,0, cstack
  3503 ;; Tracked objects:
  3504 ;;		On entry : 0/0
  3505 ;;		On exit  : 0/0
  3506 ;;		Unchanged: 0/0
  3507 ;; Data sizes:     COMRAM   BANK0   BANK1   BANK2   BANK3   BANK4   BANK5   BANK6   BANK7
  3508 ;;      Params:         0       0       0       0       0       0       0       0       0
  3509 ;;      Locals:         0       0       0       0       0       0       0       0       0
  3510 ;;      Temps:          0       0       0       0       0       0       0       0       0
  3511 ;;      Totals:         0       0       0       0       0       0       0       0       0
  3512 ;;Total ram usage:        0 bytes
  3513 ;; Hardware stack levels used: 1
  3514 ;; This function calls:
  3515 ;;		_I2C_Master_Wait
  3516 ;; This function is called by:
  3517 ;;		_SSD1306_Command
  3518 ;;		_SSD1306_StopData
  3519 ;; This function uses a non-reentrant model
  3520 ;;
  3521                           
  3522                           	psect	text18
  3523   0076EE                     __ptext18:
  3524                           	callstack 0
  3525   0076EE                     _I2C_Master_Stop:
  3526                           	callstack 25
  3527   0076EE                     
  3528                           ;i2c_master.c: 46:     I2C_Master_Wait();
  3529   0076EE  ECAC  F03B         	call	_I2C_Master_Wait	;wreg free
  3530   0076F2                     
  3531                           ;i2c_master.c: 47:     SSPCON2bits.PEN = 1;
  3532   0076F2  84C5               	bsf	197,2,c	;volatile
  3533   0076F4                     l36:
  3534   0076F4  B4C5               	btfsc	197,2,c	;volatile
  3535   0076F6  EF7F  F03B         	goto	u41
  3536   0076FA  EF81  F03B         	goto	u40
  3537   0076FE                     u41:
  3538   0076FE  EF7A  F03B         	goto	l36
  3539   007702                     u40:
  3540   007702  0012               	return		;funcret
  3541   007704                     __end_of_I2C_Master_Stop:
  3542                           	callstack 0
  3543                           
  3544 ;; *************** function _I2C_Master_Start *****************
  3545 ;; Defined at:
  3546 ;;		line 37 in file "i2c_master.c"
  3547 ;; Parameters:    Size  Location     Type
  3548 ;;		None
  3549 ;; Auto vars:     Size  Location     Type
  3550 ;;		None
  3551 ;; Return value:  Size  Location     Type
  3552 ;;                  1    wreg      void 
  3553 ;; Registers used:
  3554 ;;		wreg, status,2, status,0, cstack
  3555 ;; Tracked objects:
  3556 ;;		On entry : 0/0
  3557 ;;		On exit  : 0/0
  3558 ;;		Unchanged: 0/0
  3559 ;; Data sizes:     COMRAM   BANK0   BANK1   BANK2   BANK3   BANK4   BANK5   BANK6   BANK7
  3560 ;;      Params:         0       0       0       0       0       0       0       0       0
  3561 ;;      Locals:         0       0       0       0       0       0       0       0       0
  3562 ;;      Temps:          0       0       0       0       0       0       0       0       0
  3563 ;;      Totals:         0       0       0       0       0       0       0       0       0
  3564 ;;Total ram usage:        0 bytes
  3565 ;; Hardware stack levels used: 1
  3566 ;; This function calls:
  3567 ;;		_I2C_Master_Wait
  3568 ;; This function is called by:
  3569 ;;		_SSD1306_Command
  3570 ;;		_SSD1306_StartData
  3571 ;; This function uses a non-reentrant model
  3572 ;;
  3573                           
  3574                           	psect	text19
  3575   0076D8                     __ptext19:
  3576                           	callstack 0
  3577   0076D8                     _I2C_Master_Start:
  3578                           	callstack 25
  3579   0076D8                     
  3580                           ;i2c_master.c: 39:     I2C_Master_Wait();
  3581   0076D8  ECAC  F03B         	call	_I2C_Master_Wait	;wreg free
  3582   0076DC                     
  3583                           ;i2c_master.c: 40:     SSPCON2bits.SEN = 1;
  3584   0076DC  80C5               	bsf	197,0,c	;volatile
  3585   0076DE                     l30:
  3586   0076DE  B0C5               	btfsc	197,0,c	;volatile
  3587   0076E0  EF74  F03B         	goto	u31
  3588   0076E4  EF76  F03B         	goto	u30
  3589   0076E8                     u31:
  3590   0076E8  EF6F  F03B         	goto	l30
  3591   0076EC                     u30:
  3592   0076EC  0012               	return		;funcret
  3593   0076EE                     __end_of_I2C_Master_Start:
  3594                           	callstack 0
  3595                           
  3596 ;; *************** function _SSD1306_Data *****************
  3597 ;; Defined at:
  3598 ;;		line 132 in file "ssd1306.c"
  3599 ;; Parameters:    Size  Location     Type
  3600 ;;  data            1    wreg     unsigned char 
  3601 ;; Auto vars:     Size  Location     Type
  3602 ;;  data            1    2[COMRAM] unsigned char 
  3603 ;; Return value:  Size  Location     Type
  3604 ;;                  1    wreg      void 
  3605 ;; Registers used:
  3606 ;;		wreg, status,2, status,0, cstack
  3607 ;; Tracked objects:
  3608 ;;		On entry : 0/0
  3609 ;;		On exit  : 0/0
  3610 ;;		Unchanged: 0/0
  3611 ;; Data sizes:     COMRAM   BANK0   BANK1   BANK2   BANK3   BANK4   BANK5   BANK6   BANK7
  3612 ;;      Params:         0       0       0       0       0       0       0       0       0
  3613 ;;      Locals:         1       0       0       0       0       0       0       0       0
  3614 ;;      Temps:          0       0       0       0       0       0       0       0       0
  3615 ;;      Totals:         1       0       0       0       0       0       0       0       0
  3616 ;;Total ram usage:        1 bytes
  3617 ;; Hardware stack levels used: 1
  3618 ;; This function calls:
  3619 ;;		_I2C_Master_Write
  3620 ;; This function is called by:
  3621 ;;		_SSD1306_ClearDisplay
  3622 ;;		_SSD1306_ClearLine
  3623 ;;		_SSD1306_WriteChar
  3624 ;; This function uses a non-reentrant model
  3625 ;;
  3626                           
  3627                           	psect	text20
  3628   00769E                     __ptext20:
  3629                           	callstack 0
  3630   00769E                     _SSD1306_Data:
  3631                           	callstack 27
  3632                           
  3633                           ;incstack = 0
  3634                           ;SSD1306_Data@data stored from wreg
  3635   00769E  6E03               	movwf	SSD1306_Data@data^0,c
  3636   0076A0                     
  3637                           ;ssd1306.c: 132: static void SSD1306_Data(uint8_t data);ssd1306.c: 133: {;ssd1306.c: 134
      +                          :     I2C_Master_Write(data);
  3638   0076A0  5003               	movf	SSD1306_Data@data^0,w,c
  3639   0076A2  EC9C  F03B         	call	_I2C_Master_Write
  3640   0076A6  0012               	return		;funcret
  3641   0076A8                     __end_of_SSD1306_Data:
  3642                           	callstack 0
  3643                           
  3644 ;; *************** function _I2C_Master_Write *****************
  3645 ;; Defined at:
  3646 ;;		line 51 in file "i2c_master.c"
  3647 ;; Parameters:    Size  Location     Type
  3648 ;;  data            1    wreg     unsigned char 
  3649 ;; Auto vars:     Size  Location     Type
  3650 ;;  data            1    1[COMRAM] unsigned char 
  3651 ;; Return value:  Size  Location     Type
  3652 ;;                  1    wreg      unsigned char 
  3653 ;; Registers used:
  3654 ;;		wreg, status,2, status,0, cstack
  3655 ;; Tracked objects:
  3656 ;;		On entry : 0/0
  3657 ;;		On exit  : 0/0
  3658 ;;		Unchanged: 0/0
  3659 ;; Data sizes:     COMRAM   BANK0   BANK1   BANK2   BANK3   BANK4   BANK5   BANK6   BANK7
  3660 ;;      Params:         0       0       0       0       0       0       0       0       0
  3661 ;;      Locals:         1       0       0       0       0       0       0       0       0
  3662 ;;      Temps:          0       0       0       0       0       0       0       0       0
  3663 ;;      Totals:         1       0       0       0       0       0       0       0       0
  3664 ;;Total ram usage:        1 bytes
  3665 ;; Hardware stack levels used: 1
  3666 ;; This function calls:
  3667 ;;		_I2C_Master_Wait
  3668 ;; This function is called by:
  3669 ;;		_SSD1306_Command
  3670 ;;		_SSD1306_StartData
  3671 ;;		_SSD1306_Data
  3672 ;; This function uses a non-reentrant model
  3673 ;;
  3674                           
  3675                           	psect	text21
  3676   007738                     __ptext21:
  3677                           	callstack 0
  3678   007738                     _I2C_Master_Write:
  3679                           	callstack 25
  3680                           
  3681                           ;incstack = 0
  3682                           ;I2C_Master_Write@data stored from wreg
  3683   007738  6E02               	movwf	I2C_Master_Write@data^0,c
  3684   00773A                     
  3685                           ;i2c_master.c: 51: uint8_t I2C_Master_Write(uint8_t data);i2c_master.c: 52: {;i2c_master
      +                          .c: 53:     I2C_Master_Wait();
  3686   00773A  ECAC  F03B         	call	_I2C_Master_Wait	;wreg free
  3687   00773E                     
  3688                           ;i2c_master.c: 55:     PIR1bits.SSPIF = 0;
  3689   00773E  969E               	bcf	158,3,c	;volatile
  3690   007740                     
  3691                           ;i2c_master.c: 56:     SSPBUF = data;
  3692   007740  C002  FFC9         	movff	I2C_Master_Write@data,4041	;volatile
  3693   007744                     l42:
  3694   007744  A69E               	btfss	158,3,c	;volatile
  3695   007746  EFA7  F03B         	goto	u51
  3696   00774A  EFA9  F03B         	goto	u50
  3697   00774E                     u51:
  3698   00774E  EFA2  F03B         	goto	l42
  3699   007752                     u50:
  3700   007752                     
  3701                           ;i2c_master.c: 59:     PIR1bits.SSPIF = 0;
  3702   007752  969E               	bcf	158,3,c	;volatile
  3703   007754                     
  3704                           ;i2c_master.c: 66:     return SSPCON2bits.ACKSTAT;;	Return value of _I2C_Master_Write is
      +                           never used
  3705   007754  50C5               	movf	197,w,c	;volatile
  3706   007756  0012               	return		;funcret
  3707   007758                     __end_of_I2C_Master_Write:
  3708                           	callstack 0
  3709                           
  3710 ;; *************** function _I2C_Master_Wait *****************
  3711 ;; Defined at:
  3712 ;;		line 10 in file "i2c_master.c"
  3713 ;; Parameters:    Size  Location     Type
  3714 ;;		None
  3715 ;; Auto vars:     Size  Location     Type
  3716 ;;		None
  3717 ;; Return value:  Size  Location     Type
  3718 ;;                  1    wreg      void 
  3719 ;; Registers used:
  3720 ;;		wreg, status,2, status,0
  3721 ;; Tracked objects:
  3722 ;;		On entry : 0/0
  3723 ;;		On exit  : 0/0
  3724 ;;		Unchanged: 0/0
  3725 ;; Data sizes:     COMRAM   BANK0   BANK1   BANK2   BANK3   BANK4   BANK5   BANK6   BANK7
  3726 ;;      Params:         0       0       0       0       0       0       0       0       0
  3727 ;;      Locals:         0       0       0       0       0       0       0       0       0
  3728 ;;      Temps:          1       0       0       0       0       0       0       0       0
  3729 ;;      Totals:         1       0       0       0       0       0       0       0       0
  3730 ;;Total ram usage:        1 bytes
  3731 ;; Hardware stack levels used: 1
  3732 ;; This function calls:
  3733 ;;		Nothing
  3734 ;; This function is called by:
  3735 ;;		_I2C_Master_Start
  3736 ;;		_I2C_Master_Stop
  3737 ;;		_I2C_Master_Write
  3738 ;; This function uses a non-reentrant model
  3739 ;;
  3740                           
  3741                           	psect	text22
  3742   007758                     __ptext22:
  3743                           	callstack 0
  3744   007758                     _I2C_Master_Wait:
  3745                           	callstack 24
  3746   007758                     l993:
  3747   007758  CFC5 F001          	movff	4037,??_I2C_Master_Wait	;volatile
  3748   00775C  0E1F               	movlw	31
  3749   00775E  1601               	andwf	??_I2C_Master_Wait^0,f,c
  3750   007760  A4D8               	btfss	status,2,c
  3751   007762  EFB5  F03B         	goto	u11
  3752   007766  EFB7  F03B         	goto	u10
  3753   00776A                     u11:
  3754   00776A  EFAC  F03B         	goto	l993
  3755   00776E                     u10:
  3756   00776E  B4C7               	btfsc	199,2,c	;volatile
  3757   007770  EFBC  F03B         	goto	u21
  3758   007774  EFBE  F03B         	goto	u20
  3759   007778                     u21:
  3760   007778  EFAC  F03B         	goto	l993
  3761   00777C                     u20:
  3762   00777C  0012               	return		;funcret
  3763   00777E                     __end_of_I2C_Master_Wait:
  3764                           	callstack 0
  3765                           
  3766 ;; *************** function _ADC_Read *****************
  3767 ;; Defined at:
  3768 ;;		line 41 in file "adc.c"
  3769 ;; Parameters:    Size  Location     Type
  3770 ;;  channel         1    wreg     unsigned char 
  3771 ;; Auto vars:     Size  Location     Type
  3772 ;;  channel         1    4[COMRAM] unsigned char 
  3773 ;; Return value:  Size  Location     Type
  3774 ;;                  2    0[COMRAM] unsigned short 
  3775 ;; Registers used:
  3776 ;;		wreg, status,2, status,0
  3777 ;; Tracked objects:
  3778 ;;		On entry : 0/0
  3779 ;;		On exit  : 0/0
  3780 ;;		Unchanged: 0/0
  3781 ;; Data sizes:     COMRAM   BANK0   BANK1   BANK2   BANK3   BANK4   BANK5   BANK6   BANK7
  3782 ;;      Params:         2       0       0       0       0       0       0       0       0
  3783 ;;      Locals:         1       0       0       0       0       0       0       0       0
  3784 ;;      Temps:          2       0       0       0       0       0       0       0       0
  3785 ;;      Totals:         5       0       0       0       0       0       0       0       0
  3786 ;;Total ram usage:        5 bytes
  3787 ;; Hardware stack levels used: 1
  3788 ;; This function calls:
  3789 ;;		Nothing
  3790 ;; This function is called by:
  3791 ;;		_main
  3792 ;; This function uses a non-reentrant model
  3793 ;;
  3794                           
  3795                           	psect	text23
  3796   0077E4                     __ptext23:
  3797                           	callstack 0
  3798   0077E4                     _ADC_Read:
  3799                           	callstack 30
  3800                           
  3801                           ;incstack = 0
  3802                           ;ADC_Read@channel stored from wreg
  3803   0077E4  6E05               	movwf	ADC_Read@channel^0,c
  3804   0077E6                     
  3805                           ;adc.c: 41: uint16_t ADC_Read(uint8_t channel);adc.c: 42: {;adc.c: 43:     if (channel >
      +                           13)
  3806   0077E6  0E0D               	movlw	13
  3807   0077E8  6405               	cpfsgt	ADC_Read@channel^0,c
  3808   0077EA  EFF9  F03B         	goto	u611
  3809   0077EE  EFFB  F03B         	goto	u610
  3810   0077F2                     u611:
  3811   0077F2  EFFC  F03B         	goto	l1601
  3812   0077F6                     u610:
  3813   0077F6                     
  3814                           ;adc.c: 44:     {;adc.c: 45:         channel = 0;
  3815   0077F6  6A05               	clrf	ADC_Read@channel^0,c
  3816   0077F8                     l1601:
  3817                           
  3818                           ;adc.c: 48:     ADCON0 &= 0xC3;
  3819   0077F8  0EC3               	movlw	195
  3820   0077FA  16C2               	andwf	194,f,c	;volatile
  3821                           
  3822                           ;adc.c: 49:     ADCON0 |= (uint8_t)(channel << 2);
  3823   0077FC  4405               	rlncf	ADC_Read@channel^0,w,c
  3824   0077FE  46E8               	rlncf	wreg,f,c
  3825   007800  0BFC               	andlw	252
  3826   007802  12C2               	iorwf	194,f,c	;volatile
  3827   007804                     
  3828                           ;adc.c: 51:     _delay((unsigned long)((25)*(8000000UL/4000000.0)));
  3829   007804  0E10               	movlw	16
  3830   007806                     u687:
  3831   007806  2EE8               	decfsz	wreg,f,c
  3832   007808  D7FE               	bra	u687
  3833   00780A  D000               	nop2	
  3834   00780C                     
  3835                           ;adc.c: 53:     ADCON0bits.GO_DONE = 1;
  3836   00780C  82C2               	bsf	194,1,c	;volatile
  3837   00780E                     l68:
  3838   00780E  B2C2               	btfsc	194,1,c	;volatile
  3839   007810  EF0C  F03C         	goto	u621
  3840   007814  EF0E  F03C         	goto	u620
  3841   007818                     u621:
  3842   007818  EF07  F03C         	goto	l68
  3843   00781C                     u620:
  3844   00781C                     
  3845                           ;adc.c: 57:     return (((uint16_t)ADRESH << 8) | ADRESL);
  3846   00781C  50C4               	movf	196,w,c	;volatile
  3847   00781E  6E03               	movwf	??_ADC_Read^0,c
  3848   007820  50C3               	movf	195,w,c	;volatile
  3849   007822  6E01               	movwf	?_ADC_Read^0,c
  3850   007824  C003  F002         	movff	??_ADC_Read,?_ADC_Read+1
  3851   007828  0012               	return		;funcret
  3852   00782A                     __end_of_ADC_Read:
  3853                           	callstack 0
  3854                           
  3855                           	psect	rparam
  3856   000001                     ___rparam_used  equ	1
  3857   000000                     ___param_bank   equ	0
  3858   000000                     __Lparam        equ	__Lrparam
  3859   000000                     __Hparam        equ	__Hrparam
  3860                           
  3861                           	psect	config
  3862                           
  3863                           ;Config register CONFIG1L @ 0x300000
  3864                           ;	PLL Prescaler Selection bits
  3865                           ;	PLLDIV = 1, No prescale (4 MHz oscillator input drives PLL directly)
  3866                           ;	System Clock Postscaler Selection bits
  3867                           ;	CPUDIV = OSC1_PLL2, [Primary Oscillator Src: /1][96 MHz PLL Src: /2]
  3868                           ;	USB Clock Selection bit (used in Full-Speed USB mode only; UCFG:FSEN = 1)
  3869                           ;	USBDIV = 1, USB clock source comes directly from the primary oscillator block with no 
      +                          postscale
  3870   300000                     	org	3145728
  3871   300000  00                 	db	0
  3872                           
  3873                           ;Config register CONFIG1H @ 0x300001
  3874                           ;	Oscillator Selection bits
  3875                           ;	FOSC = INTOSCIO_EC, Internal oscillator, port function on RA6, EC used by USB (INTIO)
  3876                           ;	Fail-Safe Clock Monitor Enable bit
  3877                           ;	FCMEN = OFF, Fail-Safe Clock Monitor disabled
  3878                           ;	Internal/External Oscillator Switchover bit
  3879                           ;	IESO = OFF, Oscillator Switchover mode disabled
  3880   300001                     	org	3145729
  3881   300001  08                 	db	8
  3882                           
  3883                           ;Config register CONFIG2L @ 0x300002
  3884                           ;	Power-up Timer Enable bit
  3885                           ;	PWRT = ON, PWRT enabled
  3886                           ;	Brown-out Reset Enable bits
  3887                           ;	BOR = OFF, Brown-out Reset disabled in hardware and software
  3888                           ;	Brown-out Reset Voltage bits
  3889                           ;	BORV = 3, Minimum setting 2.05V
  3890                           ;	USB Voltage Regulator Enable bit
  3891                           ;	VREGEN = OFF, USB voltage regulator disabled
  3892   300002                     	org	3145730
  3893   300002  18                 	db	24
  3894                           
  3895                           ;Config register CONFIG2H @ 0x300003
  3896                           ;	Watchdog Timer Enable bit
  3897                           ;	WDT = OFF, WDT disabled (control is placed on the SWDTEN bit)
  3898                           ;	Watchdog Timer Postscale Select bits
  3899                           ;	WDTPS = 32768, 1:32768
  3900   300003                     	org	3145731
  3901   300003  1E                 	db	30
  3902                           
  3903                           ; Padding undefined space
  3904   300004                     	org	3145732
  3905   300004  FF                 	db	255
  3906                           
  3907                           ;Config register CONFIG3H @ 0x300005
  3908                           ;	CCP2 MUX bit
  3909                           ;	CCP2MX = ON, CCP2 input/output is multiplexed with RC1
  3910                           ;	PORTB A/D Enable bit
  3911                           ;	PBADEN = OFF, PORTB<4:0> pins are configured as digital I/O on Reset
  3912                           ;	Low-Power Timer 1 Oscillator Enable bit
  3913                           ;	LPT1OSC = OFF, Timer1 configured for higher power operation
  3914                           ;	MCLR Pin Enable bit
  3915                           ;	MCLRE = ON, MCLR pin enabled; RE3 input pin disabled
  3916   300005                     	org	3145733
  3917   300005  81                 	db	129
  3918                           
  3919                           ;Config register CONFIG4L @ 0x300006
  3920                           ;	Stack Full/Underflow Reset Enable bit
  3921                           ;	STVREN = ON, Stack full/underflow will cause Reset
  3922                           ;	Single-Supply ICSP Enable bit
  3923                           ;	LVP = OFF, Single-Supply ICSP disabled
  3924                           ;	Dedicated In-Circuit Debug/Programming Port (ICPORT) Enable bit
  3925                           ;	ICPRT = OFF, ICPORT disabled
  3926                           ;	Extended Instruction Set Enable bit
  3927                           ;	XINST = OFF, Instruction set extension and Indexed Addressing mode disabled (Legacy mo
      +                          de)
  3928                           ;	Background Debugger Enable bit
  3929                           ;	DEBUG = 0x1, unprogrammed default
  3930   300006                     	org	3145734
  3931   300006  81                 	db	129
  3932                           
  3933                           ; Padding undefined space
  3934   300007                     	org	3145735
  3935   300007  FF                 	db	255
  3936                           
  3937                           ;Config register CONFIG5L @ 0x300008
  3938                           ;	Code Protection bit
  3939                           ;	CP0 = OFF, Block 0 (000800-001FFFh) is not code-protected
  3940                           ;	Code Protection bit
  3941                           ;	CP1 = OFF, Block 1 (002000-003FFFh) is not code-protected
  3942                           ;	Code Protection bit
  3943                           ;	CP2 = OFF, Block 2 (004000-005FFFh) is not code-protected
  3944                           ;	Code Protection bit
  3945                           ;	CP3 = OFF, Block 3 (006000-007FFFh) is not code-protected
  3946   300008                     	org	3145736
  3947   300008  0F                 	db	15
  3948                           
  3949                           ;Config register CONFIG5H @ 0x300009
  3950                           ;	Boot Block Code Protection bit
  3951                           ;	CPB = OFF, Boot block (000000-0007FFh) is not code-protected
  3952                           ;	Data EEPROM Code Protection bit
  3953                           ;	CPD = OFF, Data EEPROM is not code-protected
  3954   300009                     	org	3145737
  3955   300009  C0                 	db	192
  3956                           
  3957                           ;Config register CONFIG6L @ 0x30000A
  3958                           ;	Write Protection bit
  3959                           ;	WRT0 = OFF, Block 0 (000800-001FFFh) is not write-protected
  3960                           ;	Write Protection bit
  3961                           ;	WRT1 = OFF, Block 1 (002000-003FFFh) is not write-protected
  3962                           ;	Write Protection bit
  3963                           ;	WRT2 = OFF, Block 2 (004000-005FFFh) is not write-protected
  3964                           ;	Write Protection bit
  3965                           ;	WRT3 = OFF, Block 3 (006000-007FFFh) is not write-protected
  3966   30000A                     	org	3145738
  3967   30000A  0F                 	db	15
  3968                           
  3969                           ;Config register CONFIG6H @ 0x30000B
  3970                           ;	Configuration Register Write Protection bit
  3971                           ;	WRTC = OFF, Configuration registers (300000-3000FFh) are not write-protected
  3972                           ;	Boot Block Write Protection bit
  3973                           ;	WRTB = OFF, Boot block (000000-0007FFh) is not write-protected
  3974                           ;	Data EEPROM Write Protection bit
  3975                           ;	WRTD = OFF, Data EEPROM is not write-protected
  3976   30000B                     	org	3145739
  3977   30000B  E0                 	db	224
  3978                           
  3979                           ;Config register CONFIG7L @ 0x30000C
  3980                           ;	Table Read Protection bit
  3981                           ;	EBTR0 = OFF, Block 0 (000800-001FFFh) is not protected from table reads executed in ot
      +                          her blocks
  3982                           ;	Table Read Protection bit
  3983                           ;	EBTR1 = OFF, Block 1 (002000-003FFFh) is not protected from table reads executed in ot
      +                          her blocks
  3984                           ;	Table Read Protection bit
  3985                           ;	EBTR2 = OFF, Block 2 (004000-005FFFh) is not protected from table reads executed in ot
      +                          her blocks
  3986                           ;	Table Read Protection bit
  3987                           ;	EBTR3 = OFF, Block 3 (006000-007FFFh) is not protected from table reads executed in ot
      +                          her blocks
  3988   30000C                     	org	3145740
  3989   30000C  0F                 	db	15
  3990                           
  3991                           ;Config register CONFIG7H @ 0x30000D
  3992                           ;	Boot Block Table Read Protection bit
  3993                           ;	EBTRB = OFF, Boot block (000000-0007FFh) is not protected from table reads executed in
      +                           other blocks
  3994   30000D                     	org	3145741
  3995   30000D  40                 	db	64
  3996                           tosu	equ	0xFFF
  3997                           tosh	equ	0xFFE
  3998                           tosl	equ	0xFFD
  3999                           stkptr	equ	0xFFC
  4000                           pclatu	equ	0xFFB
  4001                           pclath	equ	0xFFA
  4002                           pcl	equ	0xFF9
  4003                           tblptru	equ	0xFF8
  4004                           tblptrh	equ	0xFF7
  4005                           tblptrl	equ	0xFF6
  4006                           tablat	equ	0xFF5
  4007                           prodh	equ	0xFF4
  4008                           prodl	equ	0xFF3
  4009                           indf0	equ	0xFEF
  4010                           postinc0	equ	0xFEE
  4011                           postdec0	equ	0xFED
  4012                           preinc0	equ	0xFEC
  4013                           plusw0	equ	0xFEB
  4014                           fsr0h	equ	0xFEA
  4015                           fsr0l	equ	0xFE9
  4016                           wreg	equ	0xFE8
  4017                           indf1	equ	0xFE7
  4018                           postinc1	equ	0xFE6
  4019                           postdec1	equ	0xFE5
  4020                           preinc1	equ	0xFE4
  4021                           plusw1	equ	0xFE3
  4022                           fsr1h	equ	0xFE2
  4023                           fsr1l	equ	0xFE1
  4024                           bsr	equ	0xFE0
  4025                           indf2	equ	0xFDF
  4026                           postinc2	equ	0xFDE
  4027                           postdec2	equ	0xFDD
  4028                           preinc2	equ	0xFDC
  4029                           plusw2	equ	0xFDB
  4030                           fsr2h	equ	0xFDA
  4031                           fsr2l	equ	0xFD9
  4032                           status	equ	0xFD8

Data Sizes:
    Strings     65
    Constant    480
    Data        0
    BSS         2
    Persistent  0
    Stack       0

Auto Spaces:
    Space          Size  Autos    Used
    COMRAM           95     32      34
    BANK0           160      0       0
    BANK1           256      0       0
    BANK2           256      0       0
    BANK3           256      0       0
    BANK4           256      0       0
    BANK5           256      0       0
    BANK6           256      0       0
    BANK7           256      0       0

Pointer List with Targets:

    SSD1306_WriteString@str	PTR const unsigned char  size(2) Largest target is 17
		 -> Display_Update@adc_text(COMRAM[6]), STR_1(CODE[13]), STR_2(CODE[11]), STR_3(CODE[17]), 
		 -> STR_4(CODE[6]), STR_5(CODE[9]), STR_6(CODE[9]), 

    UInt16_To_String@buffer	PTR unsigned char  size(1) Largest target is 6
		 -> Display_Update@adc_text(COMRAM[6]), 


Critical Paths under _main in COMRAM

    _main->_Display_Update
    _System_Init->_SSD1306_Init
    _SSD1306_Init->_SSD1306_ClearDisplay
    _SSD1306_ClearDisplay->_SSD1306_SetCursor
    _Display_Update->_UInt16_To_String
    _UInt16_To_String->___lwdiv
    _SSD1306_WriteString->_SSD1306_WriteChar
    _SSD1306_WriteChar->_SSD1306_SetCursor
    _SSD1306_ClearLine->_SSD1306_SetCursor
    _SSD1306_StartData->_I2C_Master_Write
    _SSD1306_SetCursor->_SSD1306_Command
    _SSD1306_Command->_I2C_Master_Write
    _I2C_Master_Stop->_I2C_Master_Wait
    _I2C_Master_Start->_I2C_Master_Wait
    _SSD1306_Data->_I2C_Master_Write
    _I2C_Master_Write->_I2C_Master_Wait

Critical Paths under _main in BANK0

    None.

Critical Paths under _main in BANK1

    None.

Critical Paths under _main in BANK2

    None.

Critical Paths under _main in BANK3

    None.

Critical Paths under _main in BANK4

    None.

Critical Paths under _main in BANK5

    None.

Critical Paths under _main in BANK6

    None.

Critical Paths under _main in BANK7

    None.

Call Graph Tables:

 ---------------------------------------------------------------------------------
 (Depth) Function   	        Calls       Base Space   Used Autos Params    Refs
 ---------------------------------------------------------------------------------
 (0) _main                                                 5     5      0    3700
                                             27 COMRAM     5     5      0
                           _ADC_Read
                     _Display_Update
                 _Process_Components
               _SSD1306_ClearDisplay
                  _SSD1306_SetCursor
                _SSD1306_WriteString
                        _System_Init
 ---------------------------------------------------------------------------------
 (1) _System_Init                                          0     0      0     416
                           _ADC_Init
                    _I2C_Master_Init
                       _SSD1306_Init
 ---------------------------------------------------------------------------------
 (2) _SSD1306_Init                                         2     2      0     415
                                              7 COMRAM     2     2      0
               _SSD1306_ClearDisplay
                    _SSD1306_Command
 ---------------------------------------------------------------------------------
 (3) _SSD1306_ClearDisplay                                 2     2      0     385
                                              5 COMRAM     2     2      0
                       _SSD1306_Data
                  _SSD1306_SetCursor
                  _SSD1306_StartData
                   _SSD1306_StopData
 ---------------------------------------------------------------------------------
 (2) _I2C_Master_Init                                      4     0      4       1
                                              0 COMRAM     4     0      4
 ---------------------------------------------------------------------------------
 (2) _ADC_Init                                             0     0      0       0
 ---------------------------------------------------------------------------------
 (1) _Process_Components                                   3     1      2      69
                                              0 COMRAM     3     1      2
 ---------------------------------------------------------------------------------
 (1) _Display_Update                                       9     6      3    1936
                                             18 COMRAM     9     6      3
                  _SSD1306_ClearLine
                  _SSD1306_SetCursor
                _SSD1306_WriteString
                   _UInt16_To_String
 ---------------------------------------------------------------------------------
 (2) _UInt16_To_String                                    11     8      3     666
                                              7 COMRAM    11     8      3
                            ___lwdiv
                            ___lwmod
 ---------------------------------------------------------------------------------
 (3) ___lwmod                                              5     1      4     161
                                              0 COMRAM     5     1      4
 ---------------------------------------------------------------------------------
 (3) ___lwdiv                                              7     3      4     164
                                              0 COMRAM     7     3      4
 ---------------------------------------------------------------------------------
 (2) _SSD1306_WriteString                                  2     0      2     540
                                             14 COMRAM     2     0      2
                  _SSD1306_WriteChar
 ---------------------------------------------------------------------------------
 (3) _SSD1306_WriteChar                                    9     9      0     488
                                              5 COMRAM     9     9      0
                       _SSD1306_Data
                  _SSD1306_SetCursor
                  _SSD1306_StartData
                   _SSD1306_StopData
 ---------------------------------------------------------------------------------
 (2) _SSD1306_ClearLine                                    2     2      0     404
                                              5 COMRAM     2     2      0
                       _SSD1306_Data
                  _SSD1306_SetCursor
                  _SSD1306_StartData
                   _SSD1306_StopData
 ---------------------------------------------------------------------------------
 (4) _SSD1306_StopData                                     0     0      0       0
                    _I2C_Master_Stop
 ---------------------------------------------------------------------------------
 (4) _SSD1306_StartData                                    0     0      0      15
                   _I2C_Master_Start
                   _I2C_Master_Write
 ---------------------------------------------------------------------------------
 (4) _SSD1306_SetCursor                                    2     1      1     226
                                              3 COMRAM     2     1      1
                    _SSD1306_Command
 ---------------------------------------------------------------------------------
 (5) _SSD1306_Command                                      1     1      0      30
                                              2 COMRAM     1     1      0
                   _I2C_Master_Start
                    _I2C_Master_Stop
                   _I2C_Master_Write
 ---------------------------------------------------------------------------------
 (6) _I2C_Master_Stop                                      0     0      0       0
                    _I2C_Master_Wait
 ---------------------------------------------------------------------------------
 (6) _I2C_Master_Start                                     0     0      0       0
                    _I2C_Master_Wait
 ---------------------------------------------------------------------------------
 (4) _SSD1306_Data                                         1     1      0      30
                                              2 COMRAM     1     1      0
                   _I2C_Master_Write
 ---------------------------------------------------------------------------------
 (6) _I2C_Master_Write                                     1     1      0      15
                                              1 COMRAM     1     1      0
                    _I2C_Master_Wait
 ---------------------------------------------------------------------------------
 (7) _I2C_Master_Wait                                      1     1      0       0
                                              0 COMRAM     1     1      0
 ---------------------------------------------------------------------------------
 (1) _ADC_Read                                             5     3      2      60
                                              0 COMRAM     5     3      2
 ---------------------------------------------------------------------------------
 Estimated maximum stack depth 7
 ---------------------------------------------------------------------------------

 Call Graph Graphs:

 _main (ROOT)
   _ADC_Read
   _Display_Update
     _SSD1306_ClearLine
       _SSD1306_Data
         _I2C_Master_Write
           _I2C_Master_Wait
       _SSD1306_SetCursor
         _SSD1306_Command
           _I2C_Master_Start
             _I2C_Master_Wait
           _I2C_Master_Stop
             _I2C_Master_Wait
           _I2C_Master_Write
       _SSD1306_StartData
         _I2C_Master_Start
         _I2C_Master_Write
       _SSD1306_StopData
         _I2C_Master_Stop
     _SSD1306_SetCursor
     _SSD1306_WriteString
       _SSD1306_WriteChar
         _SSD1306_Data
         _SSD1306_SetCursor
         _SSD1306_StartData
         _SSD1306_StopData
     _UInt16_To_String
       ___lwdiv
       ___lwmod
   _Process_Components
   _SSD1306_ClearDisplay
     _SSD1306_Data
     _SSD1306_SetCursor
     _SSD1306_StartData
     _SSD1306_StopData
   _SSD1306_SetCursor
   _SSD1306_WriteString
   _System_Init
     _ADC_Init
     _I2C_Master_Init
     _SSD1306_Init
       _SSD1306_ClearDisplay
       _SSD1306_Command

Address spaces:
Name               Size   Autos  Total    Usage
BIGRAM            2047      0       0      0.0%
BITBANK7           256      0       0      0.0%
BANK7              256      0       0      0.0%
BITBANK6           256      0       0      0.0%
BANK6              256      0       0      0.0%
BITBANK5           256      0       0      0.0%
BANK5              256      0       0      0.0%
BITBANK4           256      0       0      0.0%
BANK4              256      0       0      0.0%
BITBANK3           256      0       0      0.0%
BANK3              256      0       0      0.0%
BITBANK2           256      0       0      0.0%
BANK2              256      0       0      0.0%
BITBANK1           256      0       0      0.0%
BANK1              256      0       0      0.0%
BITBANK0           160      0       0      0.0%
BANK0              160      0       0      0.0%
BITCOMRAM           95      0       0      0.0%
COMRAM              95     32      34     35.8%
BITBIGSFRh          61      0       0      0.0%
BITBIGSFRlh         53      0       0      0.0%
BITBIGSFRll         44      0       0      0.0%
STACK                0      0       0      0.0%
DATA                 0      0      34      0.0%


Microchip Technology PIC18 Macro Assembler V3.10 build 20250813170317 
Symbol Table                                                                                   Tue May  5 08:20:31 2026

      SSD1306_WriteString@str 000F                   _SSPSTATbits 0FC7                            l30 76DE  
                          l24 777C                            l33 76EC                            l42 7744  
                          l27 7718                            l44 7752                            l36 76F4  
                          l45 7756                            l71 7828                            l39 7702  
                          l64 76C4                            l91 76D6                            l68 780E  
                          l94 769C                            l88 7736                            l97 76A6  
                          u10 776E                            u11 776A                            u20 777C  
                          u21 7778                            u30 76EC                            u31 76E8  
                          u40 7702                            u41 76FE                            u50 7752  
                          u51 774E       Display_Update@led_state 0015                           l101 7850  
                         l102 7874                           l113 790E                           l121 7DD6  
                         l109 78C0                           l126 7D56                           l118 7D06  
                         l119 7CF6                           l135 796C                           l138 7CC8  
                         l190 77E2                           l185 77A8                           l195 7AB6  
                         l179 7B02                           l188 77DC                           l199 7C02  
                         l816 7A42                           l809 7A3A                           l826 79D0  
                         l819 79C8                           l991 7758   __end_of_SSD1306_WriteString 796E  
                         l993 7758                           l995 776E                           l997 76D8  
                         l999 76DC                           u400 7CDE                           u401 7CDA  
                         u410 7CF0                           u411 7CEC                           u420 7D1A  
                         u500 7980                           u421 7D16                           u501 797C  
                         u430 7D2A                           u510 799E                           u431 7D26  
                         u511 799A                           u360 783C                           u440 7D3E  
                         u520 79B4                           u600 7BF8                           u361 7838  
                         u441 7D3A                           u521 79B0                           u601 7BF4  
                         u610 77F6                           u370 784E                           u530 78D4  
                         u450 7D50                           u611 77F2                           u371 784A  
                         u531 78D0                           u451 7D4C                           u620 781C  
                         u540 7900                           u460 7DC8                           u380 78A0  
                         u621 7818                           u541 78FC                           u461 7DC4  
                         u381 789C                           u550 7934                           u470 79EA  
                         u630 77C0                           u390 78B6                           u471 79E6  
                         u631 77BC                           u391 78B2                           u560 795C  
                         u480 7A08                           u640 77D2                           u481 7A04  
                         u641 77CE                           u570 796C                           u490 7A24  
                         u650 7A9A                           u571 7968                           u491 7A20  
                         u651 7A96                           u580 7B64                           u557 792A  
                         u581 7B60                           u590 7BCC                           u567 7952  
                         u591 7BC8                           u667 7B38                           u677 7C0E  
                         u687 7806                           wreg 0FE8                          l1001 76EE  
                        l1011 7754                          l1003 76F2                          l1005 773A  
                        l1021 76A0                          l1007 773E                          l1015 771C  
                        l1009 7740                          l1017 76C6                          l1019 7698  
                        l1401 7D1A                          l1411 7D50                          l1403 7D2A  
                        l1155 76B6                          l1413 7D58                          l1405 7D2E  
                        l1501 7910                          l1157 76B8                          l1351 783C  
                        l1431 7DC8                          l1407 7D3E                          l1415 7D62  
                        l1503 7914                          l1511 7C1C                          l1601 77F8  
                        l1353 783E                          l1433 7DD2                          l1425 7D8E  
                        l1417 7D88                          l1409 7D40                          l1505 7938  
                        l1441 79F2                          l1521 7C3A                          l1513 7C22  
                        l1603 7804                          l1355 784E                          l1427 7DB6  
                        l1419 7D8C                          l1507 793C                          l1451 7A2C  
                        l1443 79FA                          l1435 79D2                          l1531 7C58  
                        l1523 7C40                          l1515 7C28                          l1611 777E  
                        l1605 780C                          l1357 7858                          l1349 782C  
                        l1429 7DB8                          l1453 7A2E                          l1445 7A08  
                        l1437 79D8                          l1461 7988                          l1381 78A4  
                        l1373 7888                          l1365 7878                          l1541 7C76  
                        l1533 7C5E                          l1525 7C46                          l1517 7C2E  
                        l1509 7C04                          l1621 7790                          l1613 7786  
                        l1607 781C                          l1391 7CE0                          l1455 7A34  
                        l1447 7A0E                          l1439 79EA                          l1471 79C2  
                        l1463 7990                          l1631 77D4                          l1383 78A6  
                        l1375 788E                          l1367 7886                          l1359 7876  
                        l1551 7C94                          l1543 7C7C                          l1535 7C64  
                        l1527 7C4C                          l1519 7C34                          l1623 77A4  
                        l1615 7788                          l1481 78C4                          l1393 7CF0  
                        l1449 7A24                          l1465 799E                          l1457 796E  
                        l1641 7A5A                          l1633 77E0                          l1625 77AA  
                        l1473 7704                          l1385 78B6                          l1377 7890  
                        l1561 7CB2                          l1553 7C9A                          l1545 7C82  
                        l1537 7C6A                          l1529 7C52                          l1617 778A  
                        l1395 7CF8                          l1387 7CCC                          l1467 79B4  
                        l1459 7980                          l1571 7B52                          l1651 7A8A  
                        l1643 7A64                          l1627 77C0                          l1475 7708  
                        l1379 78A0                          l1563 7CB8                          l1555 7CA0  
                        l1547 7C88                          l1539 7C70                          l1619 778C  
                        l1493 78E8                          l1485 78D8                          l1389 7CDE  
                        l1469 79BC                          l1581 7B9E                          l1573 7B64  
                        l1653 7A9A                          l1645 7A70                          l1637 7A44  
                        l1629 77D2                          l1477 7710                          l1565 7CBE  
                        l1557 7CA6                          l1549 7C8E                          l1661 7AD6  
                        l1495 78EE                          l1487 78E6                          l1399 7D0A  
                        l1591 7BE6                          l1583 7BB8                          l1575 7B6E  
                        l1655 7AAA                          l1647 7A7A                          l1639 7A54  
                        l1479 7716                          l1567 7CC4                          l1559 7CAC  
                        l1663 7AEC                          l1497 78F0                          l1593 7BE8  
                        l1585 7BBA                          l1569 7B4E                          l1649 7A80  
                        l1665 7AF6                          l1657 7AB8                          l1499 7900  
                        l1595 7BF8                          l1587 7BD0                          l1579 7B7E  
                        l1667 7B1E                          l1659 7ACA                          l1597 77E6  
                        l1589 7BD2                          l1669 7B2E                          l1599 77F6  
                        STR_1 7FCA                          STR_2 7FD7                          STR_3 7FB9  
                        STR_4 7FF4                          STR_5 7FE2                          STR_6 7FEB  
                        _main 7AB8                          fsr0h 0FEA                          fsr1h 0FE2  
                        indf0 0FEF                          fsr2h 0FDA                          fsr0l 0FE9  
                        indf1 0FE7                          indf2 0FDF                          fsr1l 0FE1  
                        fsr2l 0FD9              __end_of_ADC_Init 76C6              __end_of_ADC_Read 782A  
                        prodh 0FF4                          prodl 0FF3                          start 7FFC  
                ___param_bank 0000               __end_of_Font5x7 7FB9              ?_I2C_Master_Init 0001  
            ?_I2C_Master_Wait 0001              ?_I2C_Master_Stop 0001             ??_SSD1306_Command 0003  
                       ?_main 0001                         _CMCON 0FB4   Process_Components@adc_value 0001  
             __end_of___lwdiv 7A44               __end_of___lwmod 79D2                         tablat 0FF5  
                       status 0FD8                 main@adc_value 001F         UInt16_To_String@value 0008  
             __initialization 76A8                  __end_of_main 7B4E   Process_Components@led_state 0003  
                      ??_main 001C                 __activetblptr 0002  __end_of_SSD1306_ClearDisplay 78C2  
           ?_UInt16_To_String 0008             ?_I2C_Master_Start 0001             ?_I2C_Master_Write 0001  
          ??_UInt16_To_String 000B            ??_I2C_Master_Start 0002                        _ADCON0 0FC2  
                      _ADCON1 0FC1            ??_I2C_Master_Write 0002                        _ADCON2 0FC0  
               main@led_state 001E                        _ADRESH 0FC4                        _ADRESL 0FC3  
                      _CVRCON 0FB5                        _OSCCON 0FD3                        _SSPADD 0FC8  
                      _SSPBUF 0FC9                 ?_SSD1306_Data 0001             ?_SSD1306_StopData 0001  
               ?_SSD1306_Init 0001        SSD1306_Command@command 0003            ??_SSD1306_StopData 0002  
                   ??___lwdiv 0005                     ??___lwmod 0005               ADC_Read@channel 0005  
                      isa$std 0001                     ?_ADC_Init 0001                     ?_ADC_Read 0001  
                __mediumconst 7DD8                        tblptrh 0FF7                        tblptrl 0FF6  
                      tblptru 0FF8            SSD1306_WriteChar@c 000C            SSD1306_WriteChar@i 000D  
      UInt16_To_String@buffer 000A                    __accesstop 0060       __end_of__initialization 76AC  
               ___rparam_used 0001                ??_SSD1306_Data 0003                ??_SSD1306_Init 0008  
              __pcstackCOMRAM 0001             _SSD1306_ClearLine 78C2                    ??_ADC_Init 0001  
                  ??_ADC_Read 0003            ?_SSD1306_ClearLine 0001       I2C_Master_Init@clock_hz 0001  
         ??_SSD1306_ClearLine 0006               _SSD1306_Command 771A          _SSD1306_ClearDisplay 7876  
   __end_of_SSD1306_ClearLine 7910             _SSD1306_SetCursor 782A            ?_SSD1306_SetCursor 0004  
                     _SSPCON1 0FC6                       _SSPCON2 0FC5           ??_SSD1306_SetCursor 0005  
                     _SSPSTAT 0FC7             _SSD1306_StartData 76C6         SSD1306_SetCursor@page 0004  
                     _Font5x7 7DD9                 ??_System_Init 000A            ?_SSD1306_StartData 0001  
       ?_SSD1306_ClearDisplay 0001                       __Hparam 0000                       __Lparam 0000  
           _SSD1306_WriteChar 7CCA           ??_SSD1306_StartData 0003            ?_SSD1306_WriteChar 0001  
                     ___lwdiv 79D2     __end_of_SSD1306_SetCursor 7876                       ___lwmod 796E  
                     __pcinit 76A8                       __ramtop 0800                       __ptext0 7AB8  
                     __ptext1 777E                       __ptext2 7C04                       __ptext3 7876  
                     __ptext4 7704                       __ptext5 76B6                       __ptext6 77AA  
                     __ptext7 7A44                       __ptext8 7B4E                       __ptext9 796E  
         ??_SSD1306_WriteChar 0006          __end_of_SSD1306_Data 76A8          __end_of_SSD1306_Init 7CCA  
   __end_of_SSD1306_StartData 76D8              SSD1306_Data@data 0003          end_of_initialization 76AC  
     __end_of_SSD1306_Command 7738                 __Lmediumconst 7DD8     __end_of_SSD1306_WriteChar 7DD8  
       SSD1306_ClearLine@page 0007           __end_of_System_Init 77AA        Display_Update@adc_text 0016  
                   _TRISAbits 0F92                     _TRISBbits 0F93                     _TRISDbits 0F95  
     SSD1306_SetCursor@column 0005        ??_SSD1306_ClearDisplay 0006    SSD1306_WriteChar@character 000E  
         start_initialization 76A8          UInt16_To_String@temp 000B              ?_SSD1306_Command 0001  
           ??_I2C_Master_Init 0005             ??_I2C_Master_Wait 0001             ??_I2C_Master_Stop 0002  
                 _System_Init 777E           _SSD1306_WriteString 7910                _Display_Update 7A44  
                 __pbssCOMRAM 0021    __end_of_Process_Components 77E4          ?_SSD1306_WriteString 000F  
            _UInt16_To_String 7B4E              _I2C_Master_Start 76D8              _I2C_Master_Write 7738  
            ___lwdiv@dividend 0001                  _SSD1306_Data 769E                  _SSD1306_Init 7C04  
               __pmediumconst 7DD8                      ?___lwdiv 0001                      ?___lwmod 0001  
      __end_of_Display_Update 7AB8      SSD1306_ClearDisplay@page 0007          I2C_Master_Write@data 0002  
                 __smallconst 7DD8              _SSD1306_StopData 7698                      _ADC_Init 76B6  
                    _ADC_Read 77E4         ??_SSD1306_WriteString 0011              ___lwdiv@quotient 0005  
                   _oled_page 0021                      _LATDbits 0F8C                      _PIR1bits 0F9E  
             ?_Display_Update 0013                    _ADCON0bits 0FC2        SSD1306_WriteChar@index 000A  
                    __Hrparam 0000                      __Lrparam 0000               _I2C_Master_Init 7704  
             _I2C_Master_Wait 7758               _I2C_Master_Stop 76EE               ___lwdiv@divisor 0003  
             ___lwdiv@counter 0007                      __ptext10 79D2                      __ptext11 7910  
                    __ptext20 769E                      __ptext12 7CCA                      __ptext21 7738  
                    __ptext13 78C2                      __ptext22 7758                      __ptext14 7698  
                    __ptext23 77E4                      __ptext15 76C6                      __ptext16 782A  
                    __ptext17 771A                      __ptext18 76EE                      __ptext19 76D8  
                ?_System_Init 0001                   _oled_column 0022                      isa$xinst 0000  
     SSD1306_ClearLine@column 0006      __end_of_UInt16_To_String 7C04      __end_of_I2C_Master_Start 76EE  
    __end_of_I2C_Master_Write 7758    SSD1306_ClearDisplay@column 0006              ___lwmod@dividend 0001  
    __end_of_SSD1306_StopData 769E            _Process_Components 77AA           ?_Process_Components 0001  
     __end_of_I2C_Master_Init 771A             UInt16_To_String@i 0012             UInt16_To_String@j 0011  
     __end_of_I2C_Master_Wait 777E       __end_of_I2C_Master_Stop 7704               ___lwmod@divisor 0003  
             ___lwmod@counter 0005       Display_Update@adc_value 0013                   _SSPCON2bits 0FC5  
        ??_Process_Components 0003              ??_Display_Update 0016  
