

Microchip MPLAB XC8 Assembler V3.10 build 20250813170317 
                                                                                               Wed May  6 19:31:46 2026

Microchip MPLAB XC8 C Compiler v3.10 (Free license) build 20250813170317 Og1 
     1                           	processor	18F4550
     2                           	fnconf	rparam,??,?,0
     3                           	pagewidth 120
     4                           	opt	flic
     5                           	psect	mediumconst,global,reloc=2,class=MEDIUMCONST,space=0,delta=1,noexec
     6                           	psect	cinit,global,reloc=2,class=CODE,space=0,delta=1
     7                           	psect	bssCOMRAM,global,class=COMRAM,space=1,delta=1,lowdata,noexec
     8                           	psect	cstackCOMRAM,global,class=COMRAM,space=1,delta=1,lowdata,noexec
     9                           	psect	text0,global,reloc=2,class=CODE,space=0,delta=1
    10                           	psect	text1,global,reloc=2,class=CODE,space=0,delta=1
    11                           	psect	text2,global,reloc=2,class=CODE,space=0,delta=1
    12                           	psect	text3,global,reloc=2,class=CODE,space=0,delta=1
    13                           	psect	text4,global,reloc=2,class=CODE,space=0,delta=1
    14                           	psect	text5,global,reloc=2,class=CODE,space=0,delta=1
    15                           	psect	text6,global,reloc=2,class=CODE,space=0,delta=1
    16                           	psect	text7,global,reloc=2,class=CODE,space=0,delta=1
    17                           	psect	text8,global,reloc=2,class=CODE,space=0,delta=1,group=1
    18                           	psect	text9,global,reloc=2,class=CODE,space=0,delta=1,group=1
    19                           	psect	text10,global,reloc=2,class=CODE,space=0,delta=1
    20                           	psect	text11,global,reloc=2,class=CODE,space=0,delta=1
    21                           	psect	text12,global,reloc=2,class=CODE,space=0,delta=1
    22                           	psect	text13,global,reloc=2,class=CODE,space=0,delta=1
    23                           	psect	text14,global,reloc=2,class=CODE,space=0,delta=1
    24                           	psect	text15,global,reloc=2,class=CODE,space=0,delta=1,group=1
    25                           	psect	text16,global,reloc=2,class=CODE,space=0,delta=1,group=1
    26                           	psect	text17,global,reloc=2,class=CODE,space=0,delta=1
    27                           	psect	text18,global,reloc=2,class=CODE,space=0,delta=1
    28                           	psect	text19,global,reloc=2,class=CODE,space=0,delta=1
    29                           	psect	text20,global,reloc=2,class=CODE,space=0,delta=1
    30                           	psect	text21,global,reloc=2,class=CODE,space=0,delta=1
    31                           	psect	text22,global,reloc=2,class=CODE,space=0,delta=1
    32                           	psect	text23,global,reloc=2,class=CODE,space=0,delta=1
    33                           	psect	text24,global,reloc=2,class=CODE,space=0,delta=1
    34                           	psect	text25,global,reloc=2,class=CODE,space=0,delta=1
    35                           	psect	text26,global,reloc=2,class=CODE,space=0,delta=1
    36                           	psect	text27,global,reloc=2,class=CODE,space=0,delta=1
    37                           	psect	text28,global,reloc=2,class=CODE,space=0,delta=1
    38                           	psect	intsave_regs,global,class=BIGRAM,space=1,delta=1,noexec
    39                           	psect	rparam,global,class=COMRAM,space=1,delta=1,noexec
    40                           	psect	config,global,abs,ovrld,class=CONFIG,space=4,delta=1,noexec
    41   000000                     
    42                           ; Generated 17/01/2025 GMT
    43                           ; 
    44                           ; Copyright © 2025, Microchip Technology Inc. and its subsidiaries ("Microchip")
    45                           ; All rights reserved.
    46                           ; 
    47                           ; This software is developed by Microchip Technology Inc. and its subsidiaries ("Microch
      +                          ip").
    48                           ; 
    49                           ; Redistribution and use in source and binary forms, with or without modification, are
    50                           ; permitted provided that the following conditions are met:
    51                           ; 
    52                           ;     1. Redistributions of source code must retain the above copyright notice, this lis
      +                          t of
    53                           ;        conditions and the following disclaimer.
    54                           ; 
    55                           ;     2. Redistributions in binary form must reproduce the above copyright notice, this 
      +                          list
    56                           ;        of conditions and the following disclaimer in the documentation and/or other
    57                           ;        materials provided with the distribution. Publication is not required when
    58                           ;        this file is used in an embedded application.
    59                           ; 
    60                           ;     3. Microchip's name may not be used to endorse or promote products derived from th
      +                          is
    61                           ;        software without specific prior written permission.
    62                           ; 
    63                           ; THIS SOFTWARE IS PROVIDED BY MICROCHIP "AS IS" AND ANY EXPRESS OR IMPLIED WARRANTIES,
    64                           ; INCLUDING, BUT NOT LIMITED TO, THE IMPLIED WARRANTIES OF MERCHANTABILITY AND FITNESS F
      +                          OR
    65                           ; PURPOSE ARE DISCLAIMED.  IN NO EVENT SHALL MICROCHIP BE LIABLE FOR ANY DIRECT, INDIREC
      +                          T,
    66                           ; INCIDENTAL, SPECIAL, EXEMPLARY, OR CONSEQUENTIAL DAMAGES (INCLUDING BUT NOT LIMITED TO
    67                           ; PROCUREMENT OF SUBSTITUTE GOODS OR SERVICES; LOSS OF USE, DATA OR PROFITS; OR BUSINESS
    68                           ; INTERRUPTION) HOWSOEVER CAUSED AND ON ANY THEORY OF LIABILITY, WHETHER IN CONTRACT, ST
      +                          RICT
    69                           ; LIABILITY, OR TORT (INCLUDING NEGLIGENCE OR OTHERWISE) ARISING IN ANY WAY OUT OF THE U
      +                          SE OF
    70                           ; THIS SOFTWARE, EVEN IF ADVISED OF THE POSSIBILITY OF SUCH DAMAGE.
    71                           ; 
    72                           ; 
    73                           ; Code-generator required, PIC18F4550 Definitions
    74                           ; 
    75                           ; SFR Addresses
    76   000FE0                     bsr             equ	4064
    77   000FE9                     fsr0            equ	4073
    78   000FEA                     fsr0h           equ	4074
    79   000FE9                     fsr0l           equ	4073
    80   000FE1                     fsr1            equ	4065
    81   000FE2                     fsr1h           equ	4066
    82   000FE1                     fsr1l           equ	4065
    83   000FD9                     fsr2            equ	4057
    84   000FDA                     fsr2h           equ	4058
    85   000FD9                     fsr2l           equ	4057
    86   000FEF                     indf0           equ	4079
    87   000FE7                     indf1           equ	4071
    88   000FDF                     indf2           equ	4063
    89   000FF2                     intcon          equ	4082
    90   000000                     nvmcon          equ	0
    91   000FF9                     pcl             equ	4089
    92   000FFA                     pclath          equ	4090
    93   000FFB                     pclatu          equ	4091
    94   000FEB                     plusw0          equ	4075
    95   000FE3                     plusw1          equ	4067
    96   000FDB                     plusw2          equ	4059
    97   000FED                     postdec0        equ	4077
    98   000FE5                     postdec1        equ	4069
    99   000FDD                     postdec2        equ	4061
   100   000FEE                     postinc0        equ	4078
   101   000FE6                     postinc1        equ	4070
   102   000FDE                     postinc2        equ	4062
   103   000FEC                     preinc0         equ	4076
   104   000FE4                     preinc1         equ	4068
   105   000FDC                     preinc2         equ	4060
   106   000FF3                     prod            equ	4083
   107   000FF4                     prodh           equ	4084
   108   000FF3                     prodl           equ	4083
   109   000FD8                     status          equ	4056
   110   000FF5                     tablat          equ	4085
   111   000FF6                     tblptr          equ	4086
   112   000FF7                     tblptrh         equ	4087
   113   000FF6                     tblptrl         equ	4086
   114   000FF8                     tblptru         equ	4088
   115   000FFD                     tosl            equ	4093
   116   000FE8                     wreg            equ	4072
   117   000F62                     SPPDATA         equ	3938	;# 
   118   000F63                     SPPCFG          equ	3939	;# 
   119   000F64                     SPPEPS          equ	3940	;# 
   120   000F65                     SPPCON          equ	3941	;# 
   121   000F66                     UFRM            equ	3942	;# 
   122   000F66                     UFRML           equ	3942	;# 
   123   000F67                     UFRMH           equ	3943	;# 
   124   000F68                     UIR             equ	3944	;# 
   125   000F69                     UIE             equ	3945	;# 
   126   000F6A                     UEIR            equ	3946	;# 
   127   000F6B                     UEIE            equ	3947	;# 
   128   000F6C                     USTAT           equ	3948	;# 
   129   000F6D                     UCON            equ	3949	;# 
   130   000F6E                     UADDR           equ	3950	;# 
   131   000F6F                     UCFG            equ	3951	;# 
   132   000F70                     UEP0            equ	3952	;# 
   133   000F71                     UEP1            equ	3953	;# 
   134   000F72                     UEP2            equ	3954	;# 
   135   000F73                     UEP3            equ	3955	;# 
   136   000F74                     UEP4            equ	3956	;# 
   137   000F75                     UEP5            equ	3957	;# 
   138   000F76                     UEP6            equ	3958	;# 
   139   000F77                     UEP7            equ	3959	;# 
   140   000F78                     UEP8            equ	3960	;# 
   141   000F79                     UEP9            equ	3961	;# 
   142   000F7A                     UEP10           equ	3962	;# 
   143   000F7B                     UEP11           equ	3963	;# 
   144   000F7C                     UEP12           equ	3964	;# 
   145   000F7D                     UEP13           equ	3965	;# 
   146   000F7E                     UEP14           equ	3966	;# 
   147   000F7F                     UEP15           equ	3967	;# 
   148   000F80                     PORTA           equ	3968	;# 
   149   000F81                     PORTB           equ	3969	;# 
   150   000F82                     PORTC           equ	3970	;# 
   151   000F83                     PORTD           equ	3971	;# 
   152   000F84                     PORTE           equ	3972	;# 
   153   000F89                     LATA            equ	3977	;# 
   154   000F8A                     LATB            equ	3978	;# 
   155   000F8B                     LATC            equ	3979	;# 
   156   000F8C                     LATD            equ	3980	;# 
   157   000F8D                     LATE            equ	3981	;# 
   158   000F92                     TRISA           equ	3986	;# 
   159   000F92                     DDRA            equ	3986	;# 
   160   000F93                     TRISB           equ	3987	;# 
   161   000F93                     DDRB            equ	3987	;# 
   162   000F94                     TRISC           equ	3988	;# 
   163   000F94                     DDRC            equ	3988	;# 
   164   000F95                     TRISD           equ	3989	;# 
   165   000F95                     DDRD            equ	3989	;# 
   166   000F96                     TRISE           equ	3990	;# 
   167   000F96                     DDRE            equ	3990	;# 
   168   000F9B                     OSCTUNE         equ	3995	;# 
   169   000F9D                     PIE1            equ	3997	;# 
   170   000F9E                     PIR1            equ	3998	;# 
   171   000F9F                     IPR1            equ	3999	;# 
   172   000FA0                     PIE2            equ	4000	;# 
   173   000FA1                     PIR2            equ	4001	;# 
   174   000FA2                     IPR2            equ	4002	;# 
   175   000FA6                     EECON1          equ	4006	;# 
   176   000FA7                     EECON2          equ	4007	;# 
   177   000FA8                     EEDATA          equ	4008	;# 
   178   000FA9                     EEADR           equ	4009	;# 
   179   000FAB                     RCSTA           equ	4011	;# 
   180   000FAB                     RCSTA1          equ	4011	;# 
   181   000FAC                     TXSTA           equ	4012	;# 
   182   000FAC                     TXSTA1          equ	4012	;# 
   183   000FAD                     TXREG           equ	4013	;# 
   184   000FAD                     TXREG1          equ	4013	;# 
   185   000FAE                     RCREG           equ	4014	;# 
   186   000FAE                     RCREG1          equ	4014	;# 
   187   000FAF                     SPBRG           equ	4015	;# 
   188   000FAF                     SPBRG1          equ	4015	;# 
   189   000FB0                     SPBRGH          equ	4016	;# 
   190   000FB1                     T3CON           equ	4017	;# 
   191   000FB2                     TMR3            equ	4018	;# 
   192   000FB2                     TMR3L           equ	4018	;# 
   193   000FB3                     TMR3H           equ	4019	;# 
   194   000FB4                     CMCON           equ	4020	;# 
   195   000FB5                     CVRCON          equ	4021	;# 
   196   000FB6                     ECCP1AS         equ	4022	;# 
   197   000FB6                     CCP1AS          equ	4022	;# 
   198   000FB7                     ECCP1DEL        equ	4023	;# 
   199   000FB7                     CCP1DEL         equ	4023	;# 
   200   000FB8                     BAUDCON         equ	4024	;# 
   201   000FB8                     BAUDCTL         equ	4024	;# 
   202   000FBA                     CCP2CON         equ	4026	;# 
   203   000FBB                     CCPR2           equ	4027	;# 
   204   000FBB                     CCPR2L          equ	4027	;# 
   205   000FBC                     CCPR2H          equ	4028	;# 
   206   000FBD                     CCP1CON         equ	4029	;# 
   207   000FBD                     ECCP1CON        equ	4029	;# 
   208   000FBE                     CCPR1           equ	4030	;# 
   209   000FBE                     CCPR1L          equ	4030	;# 
   210   000FBF                     CCPR1H          equ	4031	;# 
   211   000FC0                     ADCON2          equ	4032	;# 
   212   000FC1                     ADCON1          equ	4033	;# 
   213   000FC2                     ADCON0          equ	4034	;# 
   214   000FC3                     ADRES           equ	4035	;# 
   215   000FC3                     ADRESL          equ	4035	;# 
   216   000FC4                     ADRESH          equ	4036	;# 
   217   000FC5                     SSPCON2         equ	4037	;# 
   218   000FC6                     SSPCON1         equ	4038	;# 
   219   000FC7                     SSPSTAT         equ	4039	;# 
   220   000FC8                     SSPADD          equ	4040	;# 
   221   000FC9                     SSPBUF          equ	4041	;# 
   222   000FCA                     T2CON           equ	4042	;# 
   223   000FCB                     PR2             equ	4043	;# 
   224   000FCB                     MEMCON          equ	4043	;# 
   225   000FCC                     TMR2            equ	4044	;# 
   226   000FCD                     T1CON           equ	4045	;# 
   227   000FCE                     TMR1            equ	4046	;# 
   228   000FCE                     TMR1L           equ	4046	;# 
   229   000FCF                     TMR1H           equ	4047	;# 
   230   000FD0                     RCON            equ	4048	;# 
   231   000FD1                     WDTCON          equ	4049	;# 
   232   000FD2                     HLVDCON         equ	4050	;# 
   233   000FD2                     LVDCON          equ	4050	;# 
   234   000FD3                     OSCCON          equ	4051	;# 
   235   000FD5                     T0CON           equ	4053	;# 
   236   000FD6                     TMR0            equ	4054	;# 
   237   000FD6                     TMR0L           equ	4054	;# 
   238   000FD7                     TMR0H           equ	4055	;# 
   239   000FD8                     STATUS          equ	4056	;# 
   240   000FD9                     FSR2            equ	4057	;# 
   241   000FD9                     FSR2L           equ	4057	;# 
   242   000FDA                     FSR2H           equ	4058	;# 
   243   000FDB                     PLUSW2          equ	4059	;# 
   244   000FDC                     PREINC2         equ	4060	;# 
   245   000FDD                     POSTDEC2        equ	4061	;# 
   246   000FDE                     POSTINC2        equ	4062	;# 
   247   000FDF                     INDF2           equ	4063	;# 
   248   000FE0                     BSR             equ	4064	;# 
   249   000FE1                     FSR1            equ	4065	;# 
   250   000FE1                     FSR1L           equ	4065	;# 
   251   000FE2                     FSR1H           equ	4066	;# 
   252   000FE3                     PLUSW1          equ	4067	;# 
   253   000FE4                     PREINC1         equ	4068	;# 
   254   000FE5                     POSTDEC1        equ	4069	;# 
   255   000FE6                     POSTINC1        equ	4070	;# 
   256   000FE7                     INDF1           equ	4071	;# 
   257   000FE8                     WREG            equ	4072	;# 
   258   000FE9                     FSR0            equ	4073	;# 
   259   000FE9                     FSR0L           equ	4073	;# 
   260   000FEA                     FSR0H           equ	4074	;# 
   261   000FEB                     PLUSW0          equ	4075	;# 
   262   000FEC                     PREINC0         equ	4076	;# 
   263   000FED                     POSTDEC0        equ	4077	;# 
   264   000FEE                     POSTINC0        equ	4078	;# 
   265   000FEF                     INDF0           equ	4079	;# 
   266   000FF0                     INTCON3         equ	4080	;# 
   267   000FF1                     INTCON2         equ	4081	;# 
   268   000FF2                     INTCON          equ	4082	;# 
   269   000FF3                     PROD            equ	4083	;# 
   270   000FF3                     PRODL           equ	4083	;# 
   271   000FF4                     PRODH           equ	4084	;# 
   272   000FF5                     TABLAT          equ	4085	;# 
   273   000FF6                     TBLPTR          equ	4086	;# 
   274   000FF6                     TBLPTRL         equ	4086	;# 
   275   000FF7                     TBLPTRH         equ	4087	;# 
   276   000FF8                     TBLPTRU         equ	4088	;# 
   277   000FF9                     PCLAT           equ	4089	;# 
   278   000FF9                     PC              equ	4089	;# 
   279   000FF9                     PCL             equ	4089	;# 
   280   000FFA                     PCLATH          equ	4090	;# 
   281   000FFB                     PCLATU          equ	4091	;# 
   282   000FFC                     STKPTR          equ	4092	;# 
   283   000FFD                     TOS             equ	4093	;# 
   284   000FFD                     TOSL            equ	4093	;# 
   285   000FFE                     TOSH            equ	4094	;# 
   286   000FFF                     TOSU            equ	4095	;# 
   287   000F62                     SPPDATA         equ	3938	;# 
   288   000F63                     SPPCFG          equ	3939	;# 
   289   000F64                     SPPEPS          equ	3940	;# 
   290   000F65                     SPPCON          equ	3941	;# 
   291   000F66                     UFRM            equ	3942	;# 
   292   000F66                     UFRML           equ	3942	;# 
   293   000F67                     UFRMH           equ	3943	;# 
   294   000F68                     UIR             equ	3944	;# 
   295   000F69                     UIE             equ	3945	;# 
   296   000F6A                     UEIR            equ	3946	;# 
   297   000F6B                     UEIE            equ	3947	;# 
   298   000F6C                     USTAT           equ	3948	;# 
   299   000F6D                     UCON            equ	3949	;# 
   300   000F6E                     UADDR           equ	3950	;# 
   301   000F6F                     UCFG            equ	3951	;# 
   302   000F70                     UEP0            equ	3952	;# 
   303   000F71                     UEP1            equ	3953	;# 
   304   000F72                     UEP2            equ	3954	;# 
   305   000F73                     UEP3            equ	3955	;# 
   306   000F74                     UEP4            equ	3956	;# 
   307   000F75                     UEP5            equ	3957	;# 
   308   000F76                     UEP6            equ	3958	;# 
   309   000F77                     UEP7            equ	3959	;# 
   310   000F78                     UEP8            equ	3960	;# 
   311   000F79                     UEP9            equ	3961	;# 
   312   000F7A                     UEP10           equ	3962	;# 
   313   000F7B                     UEP11           equ	3963	;# 
   314   000F7C                     UEP12           equ	3964	;# 
   315   000F7D                     UEP13           equ	3965	;# 
   316   000F7E                     UEP14           equ	3966	;# 
   317   000F7F                     UEP15           equ	3967	;# 
   318   000F80                     PORTA           equ	3968	;# 
   319   000F81                     PORTB           equ	3969	;# 
   320   000F82                     PORTC           equ	3970	;# 
   321   000F83                     PORTD           equ	3971	;# 
   322   000F84                     PORTE           equ	3972	;# 
   323   000F89                     LATA            equ	3977	;# 
   324   000F8A                     LATB            equ	3978	;# 
   325   000F8B                     LATC            equ	3979	;# 
   326   000F8C                     LATD            equ	3980	;# 
   327   000F8D                     LATE            equ	3981	;# 
   328   000F92                     TRISA           equ	3986	;# 
   329   000F92                     DDRA            equ	3986	;# 
   330   000F93                     TRISB           equ	3987	;# 
   331   000F93                     DDRB            equ	3987	;# 
   332   000F94                     TRISC           equ	3988	;# 
   333   000F94                     DDRC            equ	3988	;# 
   334   000F95                     TRISD           equ	3989	;# 
   335   000F95                     DDRD            equ	3989	;# 
   336   000F96                     TRISE           equ	3990	;# 
   337   000F96                     DDRE            equ	3990	;# 
   338   000F9B                     OSCTUNE         equ	3995	;# 
   339   000F9D                     PIE1            equ	3997	;# 
   340   000F9E                     PIR1            equ	3998	;# 
   341   000F9F                     IPR1            equ	3999	;# 
   342   000FA0                     PIE2            equ	4000	;# 
   343   000FA1                     PIR2            equ	4001	;# 
   344   000FA2                     IPR2            equ	4002	;# 
   345   000FA6                     EECON1          equ	4006	;# 
   346   000FA7                     EECON2          equ	4007	;# 
   347   000FA8                     EEDATA          equ	4008	;# 
   348   000FA9                     EEADR           equ	4009	;# 
   349   000FAB                     RCSTA           equ	4011	;# 
   350   000FAB                     RCSTA1          equ	4011	;# 
   351   000FAC                     TXSTA           equ	4012	;# 
   352   000FAC                     TXSTA1          equ	4012	;# 
   353   000FAD                     TXREG           equ	4013	;# 
   354   000FAD                     TXREG1          equ	4013	;# 
   355   000FAE                     RCREG           equ	4014	;# 
   356   000FAE                     RCREG1          equ	4014	;# 
   357   000FAF                     SPBRG           equ	4015	;# 
   358   000FAF                     SPBRG1          equ	4015	;# 
   359   000FB0                     SPBRGH          equ	4016	;# 
   360   000FB1                     T3CON           equ	4017	;# 
   361   000FB2                     TMR3            equ	4018	;# 
   362   000FB2                     TMR3L           equ	4018	;# 
   363   000FB3                     TMR3H           equ	4019	;# 
   364   000FB4                     CMCON           equ	4020	;# 
   365   000FB5                     CVRCON          equ	4021	;# 
   366   000FB6                     ECCP1AS         equ	4022	;# 
   367   000FB6                     CCP1AS          equ	4022	;# 
   368   000FB7                     ECCP1DEL        equ	4023	;# 
   369   000FB7                     CCP1DEL         equ	4023	;# 
   370   000FB8                     BAUDCON         equ	4024	;# 
   371   000FB8                     BAUDCTL         equ	4024	;# 
   372   000FBA                     CCP2CON         equ	4026	;# 
   373   000FBB                     CCPR2           equ	4027	;# 
   374   000FBB                     CCPR2L          equ	4027	;# 
   375   000FBC                     CCPR2H          equ	4028	;# 
   376   000FBD                     CCP1CON         equ	4029	;# 
   377   000FBD                     ECCP1CON        equ	4029	;# 
   378   000FBE                     CCPR1           equ	4030	;# 
   379   000FBE                     CCPR1L          equ	4030	;# 
   380   000FBF                     CCPR1H          equ	4031	;# 
   381   000FC0                     ADCON2          equ	4032	;# 
   382   000FC1                     ADCON1          equ	4033	;# 
   383   000FC2                     ADCON0          equ	4034	;# 
   384   000FC3                     ADRES           equ	4035	;# 
   385   000FC3                     ADRESL          equ	4035	;# 
   386   000FC4                     ADRESH          equ	4036	;# 
   387   000FC5                     SSPCON2         equ	4037	;# 
   388   000FC6                     SSPCON1         equ	4038	;# 
   389   000FC7                     SSPSTAT         equ	4039	;# 
   390   000FC8                     SSPADD          equ	4040	;# 
   391   000FC9                     SSPBUF          equ	4041	;# 
   392   000FCA                     T2CON           equ	4042	;# 
   393   000FCB                     PR2             equ	4043	;# 
   394   000FCB                     MEMCON          equ	4043	;# 
   395   000FCC                     TMR2            equ	4044	;# 
   396   000FCD                     T1CON           equ	4045	;# 
   397   000FCE                     TMR1            equ	4046	;# 
   398   000FCE                     TMR1L           equ	4046	;# 
   399   000FCF                     TMR1H           equ	4047	;# 
   400   000FD0                     RCON            equ	4048	;# 
   401   000FD1                     WDTCON          equ	4049	;# 
   402   000FD2                     HLVDCON         equ	4050	;# 
   403   000FD2                     LVDCON          equ	4050	;# 
   404   000FD3                     OSCCON          equ	4051	;# 
   405   000FD5                     T0CON           equ	4053	;# 
   406   000FD6                     TMR0            equ	4054	;# 
   407   000FD6                     TMR0L           equ	4054	;# 
   408   000FD7                     TMR0H           equ	4055	;# 
   409   000FD8                     STATUS          equ	4056	;# 
   410   000FD9                     FSR2            equ	4057	;# 
   411   000FD9                     FSR2L           equ	4057	;# 
   412   000FDA                     FSR2H           equ	4058	;# 
   413   000FDB                     PLUSW2          equ	4059	;# 
   414   000FDC                     PREINC2         equ	4060	;# 
   415   000FDD                     POSTDEC2        equ	4061	;# 
   416   000FDE                     POSTINC2        equ	4062	;# 
   417   000FDF                     INDF2           equ	4063	;# 
   418   000FE0                     BSR             equ	4064	;# 
   419   000FE1                     FSR1            equ	4065	;# 
   420   000FE1                     FSR1L           equ	4065	;# 
   421   000FE2                     FSR1H           equ	4066	;# 
   422   000FE3                     PLUSW1          equ	4067	;# 
   423   000FE4                     PREINC1         equ	4068	;# 
   424   000FE5                     POSTDEC1        equ	4069	;# 
   425   000FE6                     POSTINC1        equ	4070	;# 
   426   000FE7                     INDF1           equ	4071	;# 
   427   000FE8                     WREG            equ	4072	;# 
   428   000FE9                     FSR0            equ	4073	;# 
   429   000FE9                     FSR0L           equ	4073	;# 
   430   000FEA                     FSR0H           equ	4074	;# 
   431   000FEB                     PLUSW0          equ	4075	;# 
   432   000FEC                     PREINC0         equ	4076	;# 
   433   000FED                     POSTDEC0        equ	4077	;# 
   434   000FEE                     POSTINC0        equ	4078	;# 
   435   000FEF                     INDF0           equ	4079	;# 
   436   000FF0                     INTCON3         equ	4080	;# 
   437   000FF1                     INTCON2         equ	4081	;# 
   438   000FF2                     INTCON          equ	4082	;# 
   439   000FF3                     PROD            equ	4083	;# 
   440   000FF3                     PRODL           equ	4083	;# 
   441   000FF4                     PRODH           equ	4084	;# 
   442   000FF5                     TABLAT          equ	4085	;# 
   443   000FF6                     TBLPTR          equ	4086	;# 
   444   000FF6                     TBLPTRL         equ	4086	;# 
   445   000FF7                     TBLPTRH         equ	4087	;# 
   446   000FF8                     TBLPTRU         equ	4088	;# 
   447   000FF9                     PCLAT           equ	4089	;# 
   448   000FF9                     PC              equ	4089	;# 
   449   000FF9                     PCL             equ	4089	;# 
   450   000FFA                     PCLATH          equ	4090	;# 
   451   000FFB                     PCLATU          equ	4091	;# 
   452   000FFC                     STKPTR          equ	4092	;# 
   453   000FFD                     TOS             equ	4093	;# 
   454   000FFD                     TOSL            equ	4093	;# 
   455   000FFE                     TOSH            equ	4094	;# 
   456   000FFF                     TOSU            equ	4095	;# 
   457   000F62                     SPPDATA         equ	3938	;# 
   458   000F63                     SPPCFG          equ	3939	;# 
   459   000F64                     SPPEPS          equ	3940	;# 
   460   000F65                     SPPCON          equ	3941	;# 
   461   000F66                     UFRM            equ	3942	;# 
   462   000F66                     UFRML           equ	3942	;# 
   463   000F67                     UFRMH           equ	3943	;# 
   464   000F68                     UIR             equ	3944	;# 
   465   000F69                     UIE             equ	3945	;# 
   466   000F6A                     UEIR            equ	3946	;# 
   467   000F6B                     UEIE            equ	3947	;# 
   468   000F6C                     USTAT           equ	3948	;# 
   469   000F6D                     UCON            equ	3949	;# 
   470   000F6E                     UADDR           equ	3950	;# 
   471   000F6F                     UCFG            equ	3951	;# 
   472   000F70                     UEP0            equ	3952	;# 
   473   000F71                     UEP1            equ	3953	;# 
   474   000F72                     UEP2            equ	3954	;# 
   475   000F73                     UEP3            equ	3955	;# 
   476   000F74                     UEP4            equ	3956	;# 
   477   000F75                     UEP5            equ	3957	;# 
   478   000F76                     UEP6            equ	3958	;# 
   479   000F77                     UEP7            equ	3959	;# 
   480   000F78                     UEP8            equ	3960	;# 
   481   000F79                     UEP9            equ	3961	;# 
   482   000F7A                     UEP10           equ	3962	;# 
   483   000F7B                     UEP11           equ	3963	;# 
   484   000F7C                     UEP12           equ	3964	;# 
   485   000F7D                     UEP13           equ	3965	;# 
   486   000F7E                     UEP14           equ	3966	;# 
   487   000F7F                     UEP15           equ	3967	;# 
   488   000F80                     PORTA           equ	3968	;# 
   489   000F81                     PORTB           equ	3969	;# 
   490   000F82                     PORTC           equ	3970	;# 
   491   000F83                     PORTD           equ	3971	;# 
   492   000F84                     PORTE           equ	3972	;# 
   493   000F89                     LATA            equ	3977	;# 
   494   000F8A                     LATB            equ	3978	;# 
   495   000F8B                     LATC            equ	3979	;# 
   496   000F8C                     LATD            equ	3980	;# 
   497   000F8D                     LATE            equ	3981	;# 
   498   000F92                     TRISA           equ	3986	;# 
   499   000F92                     DDRA            equ	3986	;# 
   500   000F93                     TRISB           equ	3987	;# 
   501   000F93                     DDRB            equ	3987	;# 
   502   000F94                     TRISC           equ	3988	;# 
   503   000F94                     DDRC            equ	3988	;# 
   504   000F95                     TRISD           equ	3989	;# 
   505   000F95                     DDRD            equ	3989	;# 
   506   000F96                     TRISE           equ	3990	;# 
   507   000F96                     DDRE            equ	3990	;# 
   508   000F9B                     OSCTUNE         equ	3995	;# 
   509   000F9D                     PIE1            equ	3997	;# 
   510   000F9E                     PIR1            equ	3998	;# 
   511   000F9F                     IPR1            equ	3999	;# 
   512   000FA0                     PIE2            equ	4000	;# 
   513   000FA1                     PIR2            equ	4001	;# 
   514   000FA2                     IPR2            equ	4002	;# 
   515   000FA6                     EECON1          equ	4006	;# 
   516   000FA7                     EECON2          equ	4007	;# 
   517   000FA8                     EEDATA          equ	4008	;# 
   518   000FA9                     EEADR           equ	4009	;# 
   519   000FAB                     RCSTA           equ	4011	;# 
   520   000FAB                     RCSTA1          equ	4011	;# 
   521   000FAC                     TXSTA           equ	4012	;# 
   522   000FAC                     TXSTA1          equ	4012	;# 
   523   000FAD                     TXREG           equ	4013	;# 
   524   000FAD                     TXREG1          equ	4013	;# 
   525   000FAE                     RCREG           equ	4014	;# 
   526   000FAE                     RCREG1          equ	4014	;# 
   527   000FAF                     SPBRG           equ	4015	;# 
   528   000FAF                     SPBRG1          equ	4015	;# 
   529   000FB0                     SPBRGH          equ	4016	;# 
   530   000FB1                     T3CON           equ	4017	;# 
   531   000FB2                     TMR3            equ	4018	;# 
   532   000FB2                     TMR3L           equ	4018	;# 
   533   000FB3                     TMR3H           equ	4019	;# 
   534   000FB4                     CMCON           equ	4020	;# 
   535   000FB5                     CVRCON          equ	4021	;# 
   536   000FB6                     ECCP1AS         equ	4022	;# 
   537   000FB6                     CCP1AS          equ	4022	;# 
   538   000FB7                     ECCP1DEL        equ	4023	;# 
   539   000FB7                     CCP1DEL         equ	4023	;# 
   540   000FB8                     BAUDCON         equ	4024	;# 
   541   000FB8                     BAUDCTL         equ	4024	;# 
   542   000FBA                     CCP2CON         equ	4026	;# 
   543   000FBB                     CCPR2           equ	4027	;# 
   544   000FBB                     CCPR2L          equ	4027	;# 
   545   000FBC                     CCPR2H          equ	4028	;# 
   546   000FBD                     CCP1CON         equ	4029	;# 
   547   000FBD                     ECCP1CON        equ	4029	;# 
   548   000FBE                     CCPR1           equ	4030	;# 
   549   000FBE                     CCPR1L          equ	4030	;# 
   550   000FBF                     CCPR1H          equ	4031	;# 
   551   000FC0                     ADCON2          equ	4032	;# 
   552   000FC1                     ADCON1          equ	4033	;# 
   553   000FC2                     ADCON0          equ	4034	;# 
   554   000FC3                     ADRES           equ	4035	;# 
   555   000FC3                     ADRESL          equ	4035	;# 
   556   000FC4                     ADRESH          equ	4036	;# 
   557   000FC5                     SSPCON2         equ	4037	;# 
   558   000FC6                     SSPCON1         equ	4038	;# 
   559   000FC7                     SSPSTAT         equ	4039	;# 
   560   000FC8                     SSPADD          equ	4040	;# 
   561   000FC9                     SSPBUF          equ	4041	;# 
   562   000FCA                     T2CON           equ	4042	;# 
   563   000FCB                     PR2             equ	4043	;# 
   564   000FCB                     MEMCON          equ	4043	;# 
   565   000FCC                     TMR2            equ	4044	;# 
   566   000FCD                     T1CON           equ	4045	;# 
   567   000FCE                     TMR1            equ	4046	;# 
   568   000FCE                     TMR1L           equ	4046	;# 
   569   000FCF                     TMR1H           equ	4047	;# 
   570   000FD0                     RCON            equ	4048	;# 
   571   000FD1                     WDTCON          equ	4049	;# 
   572   000FD2                     HLVDCON         equ	4050	;# 
   573   000FD2                     LVDCON          equ	4050	;# 
   574   000FD3                     OSCCON          equ	4051	;# 
   575   000FD5                     T0CON           equ	4053	;# 
   576   000FD6                     TMR0            equ	4054	;# 
   577   000FD6                     TMR0L           equ	4054	;# 
   578   000FD7                     TMR0H           equ	4055	;# 
   579   000FD8                     STATUS          equ	4056	;# 
   580   000FD9                     FSR2            equ	4057	;# 
   581   000FD9                     FSR2L           equ	4057	;# 
   582   000FDA                     FSR2H           equ	4058	;# 
   583   000FDB                     PLUSW2          equ	4059	;# 
   584   000FDC                     PREINC2         equ	4060	;# 
   585   000FDD                     POSTDEC2        equ	4061	;# 
   586   000FDE                     POSTINC2        equ	4062	;# 
   587   000FDF                     INDF2           equ	4063	;# 
   588   000FE0                     BSR             equ	4064	;# 
   589   000FE1                     FSR1            equ	4065	;# 
   590   000FE1                     FSR1L           equ	4065	;# 
   591   000FE2                     FSR1H           equ	4066	;# 
   592   000FE3                     PLUSW1          equ	4067	;# 
   593   000FE4                     PREINC1         equ	4068	;# 
   594   000FE5                     POSTDEC1        equ	4069	;# 
   595   000FE6                     POSTINC1        equ	4070	;# 
   596   000FE7                     INDF1           equ	4071	;# 
   597   000FE8                     WREG            equ	4072	;# 
   598   000FE9                     FSR0            equ	4073	;# 
   599   000FE9                     FSR0L           equ	4073	;# 
   600   000FEA                     FSR0H           equ	4074	;# 
   601   000FEB                     PLUSW0          equ	4075	;# 
   602   000FEC                     PREINC0         equ	4076	;# 
   603   000FED                     POSTDEC0        equ	4077	;# 
   604   000FEE                     POSTINC0        equ	4078	;# 
   605   000FEF                     INDF0           equ	4079	;# 
   606   000FF0                     INTCON3         equ	4080	;# 
   607   000FF1                     INTCON2         equ	4081	;# 
   608   000FF2                     INTCON          equ	4082	;# 
   609   000FF3                     PROD            equ	4083	;# 
   610   000FF3                     PRODL           equ	4083	;# 
   611   000FF4                     PRODH           equ	4084	;# 
   612   000FF5                     TABLAT          equ	4085	;# 
   613   000FF6                     TBLPTR          equ	4086	;# 
   614   000FF6                     TBLPTRL         equ	4086	;# 
   615   000FF7                     TBLPTRH         equ	4087	;# 
   616   000FF8                     TBLPTRU         equ	4088	;# 
   617   000FF9                     PCLAT           equ	4089	;# 
   618   000FF9                     PC              equ	4089	;# 
   619   000FF9                     PCL             equ	4089	;# 
   620   000FFA                     PCLATH          equ	4090	;# 
   621   000FFB                     PCLATU          equ	4091	;# 
   622   000FFC                     STKPTR          equ	4092	;# 
   623   000FFD                     TOS             equ	4093	;# 
   624   000FFD                     TOSL            equ	4093	;# 
   625   000FFE                     TOSH            equ	4094	;# 
   626   000FFF                     TOSU            equ	4095	;# 
   627   000F62                     SPPDATA         equ	3938	;# 
   628   000F63                     SPPCFG          equ	3939	;# 
   629   000F64                     SPPEPS          equ	3940	;# 
   630   000F65                     SPPCON          equ	3941	;# 
   631   000F66                     UFRM            equ	3942	;# 
   632   000F66                     UFRML           equ	3942	;# 
   633   000F67                     UFRMH           equ	3943	;# 
   634   000F68                     UIR             equ	3944	;# 
   635   000F69                     UIE             equ	3945	;# 
   636   000F6A                     UEIR            equ	3946	;# 
   637   000F6B                     UEIE            equ	3947	;# 
   638   000F6C                     USTAT           equ	3948	;# 
   639   000F6D                     UCON            equ	3949	;# 
   640   000F6E                     UADDR           equ	3950	;# 
   641   000F6F                     UCFG            equ	3951	;# 
   642   000F70                     UEP0            equ	3952	;# 
   643   000F71                     UEP1            equ	3953	;# 
   644   000F72                     UEP2            equ	3954	;# 
   645   000F73                     UEP3            equ	3955	;# 
   646   000F74                     UEP4            equ	3956	;# 
   647   000F75                     UEP5            equ	3957	;# 
   648   000F76                     UEP6            equ	3958	;# 
   649   000F77                     UEP7            equ	3959	;# 
   650   000F78                     UEP8            equ	3960	;# 
   651   000F79                     UEP9            equ	3961	;# 
   652   000F7A                     UEP10           equ	3962	;# 
   653   000F7B                     UEP11           equ	3963	;# 
   654   000F7C                     UEP12           equ	3964	;# 
   655   000F7D                     UEP13           equ	3965	;# 
   656   000F7E                     UEP14           equ	3966	;# 
   657   000F7F                     UEP15           equ	3967	;# 
   658   000F80                     PORTA           equ	3968	;# 
   659   000F81                     PORTB           equ	3969	;# 
   660   000F82                     PORTC           equ	3970	;# 
   661   000F83                     PORTD           equ	3971	;# 
   662   000F84                     PORTE           equ	3972	;# 
   663   000F89                     LATA            equ	3977	;# 
   664   000F8A                     LATB            equ	3978	;# 
   665   000F8B                     LATC            equ	3979	;# 
   666   000F8C                     LATD            equ	3980	;# 
   667   000F8D                     LATE            equ	3981	;# 
   668   000F92                     TRISA           equ	3986	;# 
   669   000F92                     DDRA            equ	3986	;# 
   670   000F93                     TRISB           equ	3987	;# 
   671   000F93                     DDRB            equ	3987	;# 
   672   000F94                     TRISC           equ	3988	;# 
   673   000F94                     DDRC            equ	3988	;# 
   674   000F95                     TRISD           equ	3989	;# 
   675   000F95                     DDRD            equ	3989	;# 
   676   000F96                     TRISE           equ	3990	;# 
   677   000F96                     DDRE            equ	3990	;# 
   678   000F9B                     OSCTUNE         equ	3995	;# 
   679   000F9D                     PIE1            equ	3997	;# 
   680   000F9E                     PIR1            equ	3998	;# 
   681   000F9F                     IPR1            equ	3999	;# 
   682   000FA0                     PIE2            equ	4000	;# 
   683   000FA1                     PIR2            equ	4001	;# 
   684   000FA2                     IPR2            equ	4002	;# 
   685   000FA6                     EECON1          equ	4006	;# 
   686   000FA7                     EECON2          equ	4007	;# 
   687   000FA8                     EEDATA          equ	4008	;# 
   688   000FA9                     EEADR           equ	4009	;# 
   689   000FAB                     RCSTA           equ	4011	;# 
   690   000FAB                     RCSTA1          equ	4011	;# 
   691   000FAC                     TXSTA           equ	4012	;# 
   692   000FAC                     TXSTA1          equ	4012	;# 
   693   000FAD                     TXREG           equ	4013	;# 
   694   000FAD                     TXREG1          equ	4013	;# 
   695   000FAE                     RCREG           equ	4014	;# 
   696   000FAE                     RCREG1          equ	4014	;# 
   697   000FAF                     SPBRG           equ	4015	;# 
   698   000FAF                     SPBRG1          equ	4015	;# 
   699   000FB0                     SPBRGH          equ	4016	;# 
   700   000FB1                     T3CON           equ	4017	;# 
   701   000FB2                     TMR3            equ	4018	;# 
   702   000FB2                     TMR3L           equ	4018	;# 
   703   000FB3                     TMR3H           equ	4019	;# 
   704   000FB4                     CMCON           equ	4020	;# 
   705   000FB5                     CVRCON          equ	4021	;# 
   706   000FB6                     ECCP1AS         equ	4022	;# 
   707   000FB6                     CCP1AS          equ	4022	;# 
   708   000FB7                     ECCP1DEL        equ	4023	;# 
   709   000FB7                     CCP1DEL         equ	4023	;# 
   710   000FB8                     BAUDCON         equ	4024	;# 
   711   000FB8                     BAUDCTL         equ	4024	;# 
   712   000FBA                     CCP2CON         equ	4026	;# 
   713   000FBB                     CCPR2           equ	4027	;# 
   714   000FBB                     CCPR2L          equ	4027	;# 
   715   000FBC                     CCPR2H          equ	4028	;# 
   716   000FBD                     CCP1CON         equ	4029	;# 
   717   000FBD                     ECCP1CON        equ	4029	;# 
   718   000FBE                     CCPR1           equ	4030	;# 
   719   000FBE                     CCPR1L          equ	4030	;# 
   720   000FBF                     CCPR1H          equ	4031	;# 
   721   000FC0                     ADCON2          equ	4032	;# 
   722   000FC1                     ADCON1          equ	4033	;# 
   723   000FC2                     ADCON0          equ	4034	;# 
   724   000FC3                     ADRES           equ	4035	;# 
   725   000FC3                     ADRESL          equ	4035	;# 
   726   000FC4                     ADRESH          equ	4036	;# 
   727   000FC5                     SSPCON2         equ	4037	;# 
   728   000FC6                     SSPCON1         equ	4038	;# 
   729   000FC7                     SSPSTAT         equ	4039	;# 
   730   000FC8                     SSPADD          equ	4040	;# 
   731   000FC9                     SSPBUF          equ	4041	;# 
   732   000FCA                     T2CON           equ	4042	;# 
   733   000FCB                     PR2             equ	4043	;# 
   734   000FCB                     MEMCON          equ	4043	;# 
   735   000FCC                     TMR2            equ	4044	;# 
   736   000FCD                     T1CON           equ	4045	;# 
   737   000FCE                     TMR1            equ	4046	;# 
   738   000FCE                     TMR1L           equ	4046	;# 
   739   000FCF                     TMR1H           equ	4047	;# 
   740   000FD0                     RCON            equ	4048	;# 
   741   000FD1                     WDTCON          equ	4049	;# 
   742   000FD2                     HLVDCON         equ	4050	;# 
   743   000FD2                     LVDCON          equ	4050	;# 
   744   000FD3                     OSCCON          equ	4051	;# 
   745   000FD5                     T0CON           equ	4053	;# 
   746   000FD6                     TMR0            equ	4054	;# 
   747   000FD6                     TMR0L           equ	4054	;# 
   748   000FD7                     TMR0H           equ	4055	;# 
   749   000FD8                     STATUS          equ	4056	;# 
   750   000FD9                     FSR2            equ	4057	;# 
   751   000FD9                     FSR2L           equ	4057	;# 
   752   000FDA                     FSR2H           equ	4058	;# 
   753   000FDB                     PLUSW2          equ	4059	;# 
   754   000FDC                     PREINC2         equ	4060	;# 
   755   000FDD                     POSTDEC2        equ	4061	;# 
   756   000FDE                     POSTINC2        equ	4062	;# 
   757   000FDF                     INDF2           equ	4063	;# 
   758   000FE0                     BSR             equ	4064	;# 
   759   000FE1                     FSR1            equ	4065	;# 
   760   000FE1                     FSR1L           equ	4065	;# 
   761   000FE2                     FSR1H           equ	4066	;# 
   762   000FE3                     PLUSW1          equ	4067	;# 
   763   000FE4                     PREINC1         equ	4068	;# 
   764   000FE5                     POSTDEC1        equ	4069	;# 
   765   000FE6                     POSTINC1        equ	4070	;# 
   766   000FE7                     INDF1           equ	4071	;# 
   767   000FE8                     WREG            equ	4072	;# 
   768   000FE9                     FSR0            equ	4073	;# 
   769   000FE9                     FSR0L           equ	4073	;# 
   770   000FEA                     FSR0H           equ	4074	;# 
   771   000FEB                     PLUSW0          equ	4075	;# 
   772   000FEC                     PREINC0         equ	4076	;# 
   773   000FED                     POSTDEC0        equ	4077	;# 
   774   000FEE                     POSTINC0        equ	4078	;# 
   775   000FEF                     INDF0           equ	4079	;# 
   776   000FF0                     INTCON3         equ	4080	;# 
   777   000FF1                     INTCON2         equ	4081	;# 
   778   000FF2                     INTCON          equ	4082	;# 
   779   000FF3                     PROD            equ	4083	;# 
   780   000FF3                     PRODL           equ	4083	;# 
   781   000FF4                     PRODH           equ	4084	;# 
   782   000FF5                     TABLAT          equ	4085	;# 
   783   000FF6                     TBLPTR          equ	4086	;# 
   784   000FF6                     TBLPTRL         equ	4086	;# 
   785   000FF7                     TBLPTRH         equ	4087	;# 
   786   000FF8                     TBLPTRU         equ	4088	;# 
   787   000FF9                     PCLAT           equ	4089	;# 
   788   000FF9                     PC              equ	4089	;# 
   789   000FF9                     PCL             equ	4089	;# 
   790   000FFA                     PCLATH          equ	4090	;# 
   791   000FFB                     PCLATU          equ	4091	;# 
   792   000FFC                     STKPTR          equ	4092	;# 
   793   000FFD                     TOS             equ	4093	;# 
   794   000FFD                     TOSL            equ	4093	;# 
   795   000FFE                     TOSH            equ	4094	;# 
   796   000FFF                     TOSU            equ	4095	;# 
   797   000F62                     SPPDATA         equ	3938	;# 
   798   000F63                     SPPCFG          equ	3939	;# 
   799   000F64                     SPPEPS          equ	3940	;# 
   800   000F65                     SPPCON          equ	3941	;# 
   801   000F66                     UFRM            equ	3942	;# 
   802   000F66                     UFRML           equ	3942	;# 
   803   000F67                     UFRMH           equ	3943	;# 
   804   000F68                     UIR             equ	3944	;# 
   805   000F69                     UIE             equ	3945	;# 
   806   000F6A                     UEIR            equ	3946	;# 
   807   000F6B                     UEIE            equ	3947	;# 
   808   000F6C                     USTAT           equ	3948	;# 
   809   000F6D                     UCON            equ	3949	;# 
   810   000F6E                     UADDR           equ	3950	;# 
   811   000F6F                     UCFG            equ	3951	;# 
   812   000F70                     UEP0            equ	3952	;# 
   813   000F71                     UEP1            equ	3953	;# 
   814   000F72                     UEP2            equ	3954	;# 
   815   000F73                     UEP3            equ	3955	;# 
   816   000F74                     UEP4            equ	3956	;# 
   817   000F75                     UEP5            equ	3957	;# 
   818   000F76                     UEP6            equ	3958	;# 
   819   000F77                     UEP7            equ	3959	;# 
   820   000F78                     UEP8            equ	3960	;# 
   821   000F79                     UEP9            equ	3961	;# 
   822   000F7A                     UEP10           equ	3962	;# 
   823   000F7B                     UEP11           equ	3963	;# 
   824   000F7C                     UEP12           equ	3964	;# 
   825   000F7D                     UEP13           equ	3965	;# 
   826   000F7E                     UEP14           equ	3966	;# 
   827   000F7F                     UEP15           equ	3967	;# 
   828   000F80                     PORTA           equ	3968	;# 
   829   000F81                     PORTB           equ	3969	;# 
   830   000F82                     PORTC           equ	3970	;# 
   831   000F83                     PORTD           equ	3971	;# 
   832   000F84                     PORTE           equ	3972	;# 
   833   000F89                     LATA            equ	3977	;# 
   834   000F8A                     LATB            equ	3978	;# 
   835   000F8B                     LATC            equ	3979	;# 
   836   000F8C                     LATD            equ	3980	;# 
   837   000F8D                     LATE            equ	3981	;# 
   838   000F92                     TRISA           equ	3986	;# 
   839   000F92                     DDRA            equ	3986	;# 
   840   000F93                     TRISB           equ	3987	;# 
   841   000F93                     DDRB            equ	3987	;# 
   842   000F94                     TRISC           equ	3988	;# 
   843   000F94                     DDRC            equ	3988	;# 
   844   000F95                     TRISD           equ	3989	;# 
   845   000F95                     DDRD            equ	3989	;# 
   846   000F96                     TRISE           equ	3990	;# 
   847   000F96                     DDRE            equ	3990	;# 
   848   000F9B                     OSCTUNE         equ	3995	;# 
   849   000F9D                     PIE1            equ	3997	;# 
   850   000F9E                     PIR1            equ	3998	;# 
   851   000F9F                     IPR1            equ	3999	;# 
   852   000FA0                     PIE2            equ	4000	;# 
   853   000FA1                     PIR2            equ	4001	;# 
   854   000FA2                     IPR2            equ	4002	;# 
   855   000FA6                     EECON1          equ	4006	;# 
   856   000FA7                     EECON2          equ	4007	;# 
   857   000FA8                     EEDATA          equ	4008	;# 
   858   000FA9                     EEADR           equ	4009	;# 
   859   000FAB                     RCSTA           equ	4011	;# 
   860   000FAB                     RCSTA1          equ	4011	;# 
   861   000FAC                     TXSTA           equ	4012	;# 
   862   000FAC                     TXSTA1          equ	4012	;# 
   863   000FAD                     TXREG           equ	4013	;# 
   864   000FAD                     TXREG1          equ	4013	;# 
   865   000FAE                     RCREG           equ	4014	;# 
   866   000FAE                     RCREG1          equ	4014	;# 
   867   000FAF                     SPBRG           equ	4015	;# 
   868   000FAF                     SPBRG1          equ	4015	;# 
   869   000FB0                     SPBRGH          equ	4016	;# 
   870   000FB1                     T3CON           equ	4017	;# 
   871   000FB2                     TMR3            equ	4018	;# 
   872   000FB2                     TMR3L           equ	4018	;# 
   873   000FB3                     TMR3H           equ	4019	;# 
   874   000FB4                     CMCON           equ	4020	;# 
   875   000FB5                     CVRCON          equ	4021	;# 
   876   000FB6                     ECCP1AS         equ	4022	;# 
   877   000FB6                     CCP1AS          equ	4022	;# 
   878   000FB7                     ECCP1DEL        equ	4023	;# 
   879   000FB7                     CCP1DEL         equ	4023	;# 
   880   000FB8                     BAUDCON         equ	4024	;# 
   881   000FB8                     BAUDCTL         equ	4024	;# 
   882   000FBA                     CCP2CON         equ	4026	;# 
   883   000FBB                     CCPR2           equ	4027	;# 
   884   000FBB                     CCPR2L          equ	4027	;# 
   885   000FBC                     CCPR2H          equ	4028	;# 
   886   000FBD                     CCP1CON         equ	4029	;# 
   887   000FBD                     ECCP1CON        equ	4029	;# 
   888   000FBE                     CCPR1           equ	4030	;# 
   889   000FBE                     CCPR1L          equ	4030	;# 
   890   000FBF                     CCPR1H          equ	4031	;# 
   891   000FC0                     ADCON2          equ	4032	;# 
   892   000FC1                     ADCON1          equ	4033	;# 
   893   000FC2                     ADCON0          equ	4034	;# 
   894   000FC3                     ADRES           equ	4035	;# 
   895   000FC3                     ADRESL          equ	4035	;# 
   896   000FC4                     ADRESH          equ	4036	;# 
   897   000FC5                     SSPCON2         equ	4037	;# 
   898   000FC6                     SSPCON1         equ	4038	;# 
   899   000FC7                     SSPSTAT         equ	4039	;# 
   900   000FC8                     SSPADD          equ	4040	;# 
   901   000FC9                     SSPBUF          equ	4041	;# 
   902   000FCA                     T2CON           equ	4042	;# 
   903   000FCB                     PR2             equ	4043	;# 
   904   000FCB                     MEMCON          equ	4043	;# 
   905   000FCC                     TMR2            equ	4044	;# 
   906   000FCD                     T1CON           equ	4045	;# 
   907   000FCE                     TMR1            equ	4046	;# 
   908   000FCE                     TMR1L           equ	4046	;# 
   909   000FCF                     TMR1H           equ	4047	;# 
   910   000FD0                     RCON            equ	4048	;# 
   911   000FD1                     WDTCON          equ	4049	;# 
   912   000FD2                     HLVDCON         equ	4050	;# 
   913   000FD2                     LVDCON          equ	4050	;# 
   914   000FD3                     OSCCON          equ	4051	;# 
   915   000FD5                     T0CON           equ	4053	;# 
   916   000FD6                     TMR0            equ	4054	;# 
   917   000FD6                     TMR0L           equ	4054	;# 
   918   000FD7                     TMR0H           equ	4055	;# 
   919   000FD8                     STATUS          equ	4056	;# 
   920   000FD9                     FSR2            equ	4057	;# 
   921   000FD9                     FSR2L           equ	4057	;# 
   922   000FDA                     FSR2H           equ	4058	;# 
   923   000FDB                     PLUSW2          equ	4059	;# 
   924   000FDC                     PREINC2         equ	4060	;# 
   925   000FDD                     POSTDEC2        equ	4061	;# 
   926   000FDE                     POSTINC2        equ	4062	;# 
   927   000FDF                     INDF2           equ	4063	;# 
   928   000FE0                     BSR             equ	4064	;# 
   929   000FE1                     FSR1            equ	4065	;# 
   930   000FE1                     FSR1L           equ	4065	;# 
   931   000FE2                     FSR1H           equ	4066	;# 
   932   000FE3                     PLUSW1          equ	4067	;# 
   933   000FE4                     PREINC1         equ	4068	;# 
   934   000FE5                     POSTDEC1        equ	4069	;# 
   935   000FE6                     POSTINC1        equ	4070	;# 
   936   000FE7                     INDF1           equ	4071	;# 
   937   000FE8                     WREG            equ	4072	;# 
   938   000FE9                     FSR0            equ	4073	;# 
   939   000FE9                     FSR0L           equ	4073	;# 
   940   000FEA                     FSR0H           equ	4074	;# 
   941   000FEB                     PLUSW0          equ	4075	;# 
   942   000FEC                     PREINC0         equ	4076	;# 
   943   000FED                     POSTDEC0        equ	4077	;# 
   944   000FEE                     POSTINC0        equ	4078	;# 
   945   000FEF                     INDF0           equ	4079	;# 
   946   000FF0                     INTCON3         equ	4080	;# 
   947   000FF1                     INTCON2         equ	4081	;# 
   948   000FF2                     INTCON          equ	4082	;# 
   949   000FF3                     PROD            equ	4083	;# 
   950   000FF3                     PRODL           equ	4083	;# 
   951   000FF4                     PRODH           equ	4084	;# 
   952   000FF5                     TABLAT          equ	4085	;# 
   953   000FF6                     TBLPTR          equ	4086	;# 
   954   000FF6                     TBLPTRL         equ	4086	;# 
   955   000FF7                     TBLPTRH         equ	4087	;# 
   956   000FF8                     TBLPTRU         equ	4088	;# 
   957   000FF9                     PCLAT           equ	4089	;# 
   958   000FF9                     PC              equ	4089	;# 
   959   000FF9                     PCL             equ	4089	;# 
   960   000FFA                     PCLATH          equ	4090	;# 
   961   000FFB                     PCLATU          equ	4091	;# 
   962   000FFC                     STKPTR          equ	4092	;# 
   963   000FFD                     TOS             equ	4093	;# 
   964   000FFD                     TOSL            equ	4093	;# 
   965   000FFE                     TOSH            equ	4094	;# 
   966   000FFF                     TOSU            equ	4095	;# 
   967                           
   968                           	psect	mediumconst
   969   007DD4                     __pmediumconst:
   970                           	callstack 0
   971   007DD4  00                 	db	0
   972   007DD5                     _Font5x7:
   973                           	callstack 0
   974   007DD5  00                 	db	0
   975   007DD6  00                 	db	0
   976   007DD7  00                 	db	0
   977   007DD8  00                 	db	0
   978   007DD9  00                 	db	0
   979   007DDA  00                 	db	0
   980   007DDB  00                 	db	0
   981   007DDC  5F                 	db	95
   982   007DDD  00                 	db	0
   983   007DDE  00                 	db	0
   984   007DDF  00                 	db	0
   985   007DE0  07                 	db	7
   986   007DE1  00                 	db	0
   987   007DE2  07                 	db	7
   988   007DE3  00                 	db	0
   989   007DE4  14                 	db	20
   990   007DE5  7F                 	db	127
   991   007DE6  14                 	db	20
   992   007DE7  7F                 	db	127
   993   007DE8  14                 	db	20
   994   007DE9  24                 	db	36
   995   007DEA  2A                 	db	42
   996   007DEB  7F                 	db	127
   997   007DEC  2A                 	db	42
   998   007DED  12                 	db	18
   999   007DEE  23                 	db	35
  1000   007DEF  13                 	db	19
  1001   007DF0  08                 	db	8
  1002   007DF1  64                 	db	100
  1003   007DF2  62                 	db	98
  1004   007DF3  36                 	db	54
  1005   007DF4  49                 	db	73
  1006   007DF5  55                 	db	85
  1007   007DF6  22                 	db	34
  1008   007DF7  50                 	db	80
  1009   007DF8  00                 	db	0
  1010   007DF9  05                 	db	5
  1011   007DFA  03                 	db	3
  1012   007DFB  00                 	db	0
  1013   007DFC  00                 	db	0
  1014   007DFD  00                 	db	0
  1015   007DFE  1C                 	db	28
  1016   007DFF  22                 	db	34
  1017   007E00  41                 	db	65
  1018   007E01  00                 	db	0
  1019   007E02  00                 	db	0
  1020   007E03  41                 	db	65
  1021   007E04  22                 	db	34
  1022   007E05  1C                 	db	28
  1023   007E06  00                 	db	0
  1024   007E07  14                 	db	20
  1025   007E08  08                 	db	8
  1026   007E09  3E                 	db	62
  1027   007E0A  08                 	db	8
  1028   007E0B  14                 	db	20
  1029   007E0C  08                 	db	8
  1030   007E0D  08                 	db	8
  1031   007E0E  3E                 	db	62
  1032   007E0F  08                 	db	8
  1033   007E10  08                 	db	8
  1034   007E11  00                 	db	0
  1035   007E12  50                 	db	80
  1036   007E13  30                 	db	48
  1037   007E14  00                 	db	0
  1038   007E15  00                 	db	0
  1039   007E16  08                 	db	8
  1040   007E17  08                 	db	8
  1041   007E18  08                 	db	8
  1042   007E19  08                 	db	8
  1043   007E1A  08                 	db	8
  1044   007E1B  00                 	db	0
  1045   007E1C  60                 	db	96
  1046   007E1D  60                 	db	96
  1047   007E1E  00                 	db	0
  1048   007E1F  00                 	db	0
  1049   007E20  20                 	db	32
  1050   007E21  10                 	db	16
  1051   007E22  08                 	db	8
  1052   007E23  04                 	db	4
  1053   007E24  02                 	db	2
  1054   007E25  3E                 	db	62
  1055   007E26  51                 	db	81
  1056   007E27  49                 	db	73
  1057   007E28  45                 	db	69
  1058   007E29  3E                 	db	62
  1059   007E2A  00                 	db	0
  1060   007E2B  42                 	db	66
  1061   007E2C  7F                 	db	127
  1062   007E2D  40                 	db	64
  1063   007E2E  00                 	db	0
  1064   007E2F  42                 	db	66
  1065   007E30  61                 	db	97
  1066   007E31  51                 	db	81
  1067   007E32  49                 	db	73
  1068   007E33  46                 	db	70
  1069   007E34  21                 	db	33
  1070   007E35  41                 	db	65
  1071   007E36  45                 	db	69
  1072   007E37  4B                 	db	75
  1073   007E38  31                 	db	49
  1074   007E39  18                 	db	24
  1075   007E3A  14                 	db	20
  1076   007E3B  12                 	db	18
  1077   007E3C  7F                 	db	127
  1078   007E3D  10                 	db	16
  1079   007E3E  27                 	db	39
  1080   007E3F  45                 	db	69
  1081   007E40  45                 	db	69
  1082   007E41  45                 	db	69
  1083   007E42  39                 	db	57
  1084   007E43  3C                 	db	60
  1085   007E44  4A                 	db	74
  1086   007E45  49                 	db	73
  1087   007E46  49                 	db	73
  1088   007E47  30                 	db	48
  1089   007E48  01                 	db	1
  1090   007E49  71                 	db	113
  1091   007E4A  09                 	db	9
  1092   007E4B  05                 	db	5
  1093   007E4C  03                 	db	3
  1094   007E4D  36                 	db	54
  1095   007E4E  49                 	db	73
  1096   007E4F  49                 	db	73
  1097   007E50  49                 	db	73
  1098   007E51  36                 	db	54
  1099   007E52  06                 	db	6
  1100   007E53  49                 	db	73
  1101   007E54  49                 	db	73
  1102   007E55  29                 	db	41
  1103   007E56  1E                 	db	30
  1104   007E57  00                 	db	0
  1105   007E58  36                 	db	54
  1106   007E59  36                 	db	54
  1107   007E5A  00                 	db	0
  1108   007E5B  00                 	db	0
  1109   007E5C  00                 	db	0
  1110   007E5D  56                 	db	86
  1111   007E5E  36                 	db	54
  1112   007E5F  00                 	db	0
  1113   007E60  00                 	db	0
  1114   007E61  08                 	db	8
  1115   007E62  14                 	db	20
  1116   007E63  22                 	db	34
  1117   007E64  41                 	db	65
  1118   007E65  00                 	db	0
  1119   007E66  14                 	db	20
  1120   007E67  14                 	db	20
  1121   007E68  14                 	db	20
  1122   007E69  14                 	db	20
  1123   007E6A  14                 	db	20
  1124   007E6B  00                 	db	0
  1125   007E6C  41                 	db	65
  1126   007E6D  22                 	db	34
  1127   007E6E  14                 	db	20
  1128   007E6F  08                 	db	8
  1129   007E70  02                 	db	2
  1130   007E71  01                 	db	1
  1131   007E72  51                 	db	81
  1132   007E73  09                 	db	9
  1133   007E74  06                 	db	6
  1134   007E75  32                 	db	50
  1135   007E76  49                 	db	73
  1136   007E77  79                 	db	121
  1137   007E78  41                 	db	65
  1138   007E79  3E                 	db	62
  1139   007E7A  7E                 	db	126
  1140   007E7B  11                 	db	17
  1141   007E7C  11                 	db	17
  1142   007E7D  11                 	db	17
  1143   007E7E  7E                 	db	126
  1144   007E7F  7F                 	db	127
  1145   007E80  49                 	db	73
  1146   007E81  49                 	db	73
  1147   007E82  49                 	db	73
  1148   007E83  36                 	db	54
  1149   007E84  3E                 	db	62
  1150   007E85  41                 	db	65
  1151   007E86  41                 	db	65
  1152   007E87  41                 	db	65
  1153   007E88  22                 	db	34
  1154   007E89  7F                 	db	127
  1155   007E8A  41                 	db	65
  1156   007E8B  41                 	db	65
  1157   007E8C  22                 	db	34
  1158   007E8D  1C                 	db	28
  1159   007E8E  7F                 	db	127
  1160   007E8F  49                 	db	73
  1161   007E90  49                 	db	73
  1162   007E91  49                 	db	73
  1163   007E92  41                 	db	65
  1164   007E93  7F                 	db	127
  1165   007E94  09                 	db	9
  1166   007E95  09                 	db	9
  1167   007E96  09                 	db	9
  1168   007E97  01                 	db	1
  1169   007E98  3E                 	db	62
  1170   007E99  41                 	db	65
  1171   007E9A  49                 	db	73
  1172   007E9B  49                 	db	73
  1173   007E9C  7A                 	db	122
  1174   007E9D  7F                 	db	127
  1175   007E9E  08                 	db	8
  1176   007E9F  08                 	db	8
  1177   007EA0  08                 	db	8
  1178   007EA1  7F                 	db	127
  1179   007EA2  00                 	db	0
  1180   007EA3  41                 	db	65
  1181   007EA4  7F                 	db	127
  1182   007EA5  41                 	db	65
  1183   007EA6  00                 	db	0
  1184   007EA7  20                 	db	32
  1185   007EA8  40                 	db	64
  1186   007EA9  41                 	db	65
  1187   007EAA  3F                 	db	63
  1188   007EAB  01                 	db	1
  1189   007EAC  7F                 	db	127
  1190   007EAD  08                 	db	8
  1191   007EAE  14                 	db	20
  1192   007EAF  22                 	db	34
  1193   007EB0  41                 	db	65
  1194   007EB1  7F                 	db	127
  1195   007EB2  40                 	db	64
  1196   007EB3  40                 	db	64
  1197   007EB4  40                 	db	64
  1198   007EB5  40                 	db	64
  1199   007EB6  7F                 	db	127
  1200   007EB7  02                 	db	2
  1201   007EB8  0C                 	db	12
  1202   007EB9  02                 	db	2
  1203   007EBA  7F                 	db	127
  1204   007EBB  7F                 	db	127
  1205   007EBC  04                 	db	4
  1206   007EBD  08                 	db	8
  1207   007EBE  10                 	db	16
  1208   007EBF  7F                 	db	127
  1209   007EC0  3E                 	db	62
  1210   007EC1  41                 	db	65
  1211   007EC2  41                 	db	65
  1212   007EC3  41                 	db	65
  1213   007EC4  3E                 	db	62
  1214   007EC5  7F                 	db	127
  1215   007EC6  09                 	db	9
  1216   007EC7  09                 	db	9
  1217   007EC8  09                 	db	9
  1218   007EC9  06                 	db	6
  1219   007ECA  3E                 	db	62
  1220   007ECB  41                 	db	65
  1221   007ECC  51                 	db	81
  1222   007ECD  21                 	db	33
  1223   007ECE  5E                 	db	94
  1224   007ECF  7F                 	db	127
  1225   007ED0  09                 	db	9
  1226   007ED1  19                 	db	25
  1227   007ED2  29                 	db	41
  1228   007ED3  46                 	db	70
  1229   007ED4  46                 	db	70
  1230   007ED5  49                 	db	73
  1231   007ED6  49                 	db	73
  1232   007ED7  49                 	db	73
  1233   007ED8  31                 	db	49
  1234   007ED9  01                 	db	1
  1235   007EDA  01                 	db	1
  1236   007EDB  7F                 	db	127
  1237   007EDC  01                 	db	1
  1238   007EDD  01                 	db	1
  1239   007EDE  3F                 	db	63
  1240   007EDF  40                 	db	64
  1241   007EE0  40                 	db	64
  1242   007EE1  40                 	db	64
  1243   007EE2  3F                 	db	63
  1244   007EE3  1F                 	db	31
  1245   007EE4  20                 	db	32
  1246   007EE5  40                 	db	64
  1247   007EE6  20                 	db	32
  1248   007EE7  1F                 	db	31
  1249   007EE8  7F                 	db	127
  1250   007EE9  20                 	db	32
  1251   007EEA  18                 	db	24
  1252   007EEB  20                 	db	32
  1253   007EEC  7F                 	db	127
  1254   007EED  63                 	db	99
  1255   007EEE  14                 	db	20
  1256   007EEF  08                 	db	8
  1257   007EF0  14                 	db	20
  1258   007EF1  63                 	db	99
  1259   007EF2  07                 	db	7
  1260   007EF3  08                 	db	8
  1261   007EF4  70                 	db	112
  1262   007EF5  08                 	db	8
  1263   007EF6  07                 	db	7
  1264   007EF7  61                 	db	97
  1265   007EF8  51                 	db	81
  1266   007EF9  49                 	db	73
  1267   007EFA  45                 	db	69
  1268   007EFB  43                 	db	67
  1269   007EFC  00                 	db	0
  1270   007EFD  7F                 	db	127
  1271   007EFE  41                 	db	65
  1272   007EFF  41                 	db	65
  1273   007F00  00                 	db	0
  1274   007F01  02                 	db	2
  1275   007F02  04                 	db	4
  1276   007F03  08                 	db	8
  1277   007F04  10                 	db	16
  1278   007F05  20                 	db	32
  1279   007F06  00                 	db	0
  1280   007F07  41                 	db	65
  1281   007F08  41                 	db	65
  1282   007F09  7F                 	db	127
  1283   007F0A  00                 	db	0
  1284   007F0B  04                 	db	4
  1285   007F0C  02                 	db	2
  1286   007F0D  01                 	db	1
  1287   007F0E  02                 	db	2
  1288   007F0F  04                 	db	4
  1289   007F10  40                 	db	64
  1290   007F11  40                 	db	64
  1291   007F12  40                 	db	64
  1292   007F13  40                 	db	64
  1293   007F14  40                 	db	64
  1294   007F15  00                 	db	0
  1295   007F16  01                 	db	1
  1296   007F17  02                 	db	2
  1297   007F18  04                 	db	4
  1298   007F19  00                 	db	0
  1299   007F1A  20                 	db	32
  1300   007F1B  54                 	db	84
  1301   007F1C  54                 	db	84
  1302   007F1D  54                 	db	84
  1303   007F1E  78                 	db	120
  1304   007F1F  7F                 	db	127
  1305   007F20  48                 	db	72
  1306   007F21  44                 	db	68
  1307   007F22  44                 	db	68
  1308   007F23  38                 	db	56
  1309   007F24  38                 	db	56
  1310   007F25  44                 	db	68
  1311   007F26  44                 	db	68
  1312   007F27  44                 	db	68
  1313   007F28  20                 	db	32
  1314   007F29  38                 	db	56
  1315   007F2A  44                 	db	68
  1316   007F2B  44                 	db	68
  1317   007F2C  48                 	db	72
  1318   007F2D  7F                 	db	127
  1319   007F2E  38                 	db	56
  1320   007F2F  54                 	db	84
  1321   007F30  54                 	db	84
  1322   007F31  54                 	db	84
  1323   007F32  18                 	db	24
  1324   007F33  08                 	db	8
  1325   007F34  7E                 	db	126
  1326   007F35  09                 	db	9
  1327   007F36  01                 	db	1
  1328   007F37  02                 	db	2
  1329   007F38  0C                 	db	12
  1330   007F39  52                 	db	82
  1331   007F3A  52                 	db	82
  1332   007F3B  52                 	db	82
  1333   007F3C  3E                 	db	62
  1334   007F3D  7F                 	db	127
  1335   007F3E  08                 	db	8
  1336   007F3F  04                 	db	4
  1337   007F40  04                 	db	4
  1338   007F41  78                 	db	120
  1339   007F42  00                 	db	0
  1340   007F43  44                 	db	68
  1341   007F44  7D                 	db	125
  1342   007F45  40                 	db	64
  1343   007F46  00                 	db	0
  1344   007F47  20                 	db	32
  1345   007F48  40                 	db	64
  1346   007F49  44                 	db	68
  1347   007F4A  3D                 	db	61
  1348   007F4B  00                 	db	0
  1349   007F4C  7F                 	db	127
  1350   007F4D  10                 	db	16
  1351   007F4E  28                 	db	40
  1352   007F4F  44                 	db	68
  1353   007F50  00                 	db	0
  1354   007F51  00                 	db	0
  1355   007F52  41                 	db	65
  1356   007F53  7F                 	db	127
  1357   007F54  40                 	db	64
  1358   007F55  00                 	db	0
  1359   007F56  7C                 	db	124
  1360   007F57  04                 	db	4
  1361   007F58  18                 	db	24
  1362   007F59  04                 	db	4
  1363   007F5A  78                 	db	120
  1364   007F5B  7C                 	db	124
  1365   007F5C  08                 	db	8
  1366   007F5D  04                 	db	4
  1367   007F5E  04                 	db	4
  1368   007F5F  78                 	db	120
  1369   007F60  38                 	db	56
  1370   007F61  44                 	db	68
  1371   007F62  44                 	db	68
  1372   007F63  44                 	db	68
  1373   007F64  38                 	db	56
  1374   007F65  7C                 	db	124
  1375   007F66  14                 	db	20
  1376   007F67  14                 	db	20
  1377   007F68  14                 	db	20
  1378   007F69  08                 	db	8
  1379   007F6A  08                 	db	8
  1380   007F6B  14                 	db	20
  1381   007F6C  14                 	db	20
  1382   007F6D  18                 	db	24
  1383   007F6E  7C                 	db	124
  1384   007F6F  7C                 	db	124
  1385   007F70  08                 	db	8
  1386   007F71  04                 	db	4
  1387   007F72  04                 	db	4
  1388   007F73  08                 	db	8
  1389   007F74  48                 	db	72
  1390   007F75  54                 	db	84
  1391   007F76  54                 	db	84
  1392   007F77  54                 	db	84
  1393   007F78  20                 	db	32
  1394   007F79  04                 	db	4
  1395   007F7A  3F                 	db	63
  1396   007F7B  44                 	db	68
  1397   007F7C  40                 	db	64
  1398   007F7D  20                 	db	32
  1399   007F7E  3C                 	db	60
  1400   007F7F  40                 	db	64
  1401   007F80  40                 	db	64
  1402   007F81  20                 	db	32
  1403   007F82  7C                 	db	124
  1404   007F83  1C                 	db	28
  1405   007F84  20                 	db	32
  1406   007F85  40                 	db	64
  1407   007F86  20                 	db	32
  1408   007F87  1C                 	db	28
  1409   007F88  3C                 	db	60
  1410   007F89  40                 	db	64
  1411   007F8A  30                 	db	48
  1412   007F8B  40                 	db	64
  1413   007F8C  3C                 	db	60
  1414   007F8D  44                 	db	68
  1415   007F8E  28                 	db	40
  1416   007F8F  10                 	db	16
  1417   007F90  28                 	db	40
  1418   007F91  44                 	db	68
  1419   007F92  0C                 	db	12
  1420   007F93  50                 	db	80
  1421   007F94  50                 	db	80
  1422   007F95  50                 	db	80
  1423   007F96  3C                 	db	60
  1424   007F97  44                 	db	68
  1425   007F98  64                 	db	100
  1426   007F99  54                 	db	84
  1427   007F9A  4C                 	db	76
  1428   007F9B  44                 	db	68
  1429   007F9C  00                 	db	0
  1430   007F9D  08                 	db	8
  1431   007F9E  36                 	db	54
  1432   007F9F  41                 	db	65
  1433   007FA0  00                 	db	0
  1434   007FA1  00                 	db	0
  1435   007FA2  00                 	db	0
  1436   007FA3  7F                 	db	127
  1437   007FA4  00                 	db	0
  1438   007FA5  00                 	db	0
  1439   007FA6  00                 	db	0
  1440   007FA7  41                 	db	65
  1441   007FA8  36                 	db	54
  1442   007FA9  08                 	db	8
  1443   007FAA  00                 	db	0
  1444   007FAB  08                 	db	8
  1445   007FAC  08                 	db	8
  1446   007FAD  2A                 	db	42
  1447   007FAE  1C                 	db	28
  1448   007FAF  08                 	db	8
  1449   007FB0  00                 	db	0
  1450   007FB1  00                 	db	0
  1451   007FB2  00                 	db	0
  1452   007FB3  00                 	db	0
  1453   007FB4  00                 	db	0
  1454   007FB5                     __end_of_Font5x7:
  1455                           	callstack 0
  1456   000F8C                     _LATDbits       set	3980
  1457   000F95                     _TRISDbits      set	3989
  1458   000FB5                     _CVRCON         set	4021
  1459   000FB4                     _CMCON          set	4020
  1460   000FD3                     _OSCCON         set	4051
  1461   000FC3                     _ADRESL         set	4035
  1462   000FC4                     _ADRESH         set	4036
  1463   000FC2                     _ADCON0bits     set	4034
  1464   000FC0                     _ADCON2         set	4032
  1465   000FC1                     _ADCON1         set	4033
  1466   000FC2                     _ADCON0         set	4034
  1467   000F92                     _TRISAbits      set	3986
  1468   000FC9                     _SSPBUF         set	4041
  1469   000FC5                     _SSPCON2bits    set	4037
  1470   000F9E                     _PIR1bits       set	3998
  1471   000FC8                     _SSPADD         set	4040
  1472   000FC6                     _SSPCON1        set	4038
  1473   000FC7                     _SSPSTAT        set	4039
  1474   000F93                     _TRISBbits      set	3987
  1475   000FC7                     _SSPSTATbits    set	4039
  1476   000FC5                     _SSPCON2        set	4037
  1477   007FB5                     STR_3:
  1478   007FB5  54                 	db	84	;'T'
  1479   007FB6  65                 	db	101	;'e'
  1480   007FB7  6D                 	db	109	;'m'
  1481   007FB8  70                 	db	112	;'p'
  1482   007FB9  20                 	db	32
  1483   007FBA  72                 	db	114	;'r'
  1484   007FBB  65                 	db	101	;'e'
  1485   007FBC  61                 	db	97	;'a'
  1486   007FBD  6C                 	db	108	;'l'
  1487   007FBE  20                 	db	32
  1488   007FBF  65                 	db	101	;'e'
  1489   007FC0  6E                 	db	110	;'n'
  1490   007FC1  20                 	db	32
  1491   007FC2  43                 	db	67	;'C'
  1492   007FC3  00                 	db	0
  1493   007FC4                     STR_1:
  1494   007FC4  53                 	db	83	;'S'
  1495   007FC5  45                 	db	69	;'E'
  1496   007FC6  4E                 	db	78	;'N'
  1497   007FC7  53                 	db	83	;'S'
  1498   007FC8  4F                 	db	79	;'O'
  1499   007FC9  52                 	db	82	;'R'
  1500   007FCA  20                 	db	32
  1501   007FCB  4C                 	db	76	;'L'
  1502   007FCC  4D                 	db	77	;'M'
  1503   007FCD  33                 	db	51	;'3'
  1504   007FCE  35                 	db	53	;'5'
  1505   007FCF  00                 	db	0
  1506   007FD0                     STR_2:
  1507   007FD0  50                 	db	80	;'P'
  1508   007FD1  49                 	db	73	;'I'
  1509   007FD2  43                 	db	67	;'C'
  1510   007FD3  31                 	db	49	;'1'
  1511   007FD4  38                 	db	56	;'8'
  1512   007FD5  46                 	db	70	;'F'
  1513   007FD6  34                 	db	52	;'4'
  1514   007FD7  35                 	db	53	;'5'
  1515   007FD8  35                 	db	53	;'5'
  1516   007FD9  30                 	db	48	;'0'
  1517   007FDA  00                 	db	0
  1518   007FDB                     STR_7:
  1519   007FDB  4C                 	db	76	;'L'
  1520   007FDC  45                 	db	69	;'E'
  1521   007FDD  44                 	db	68	;'D'
  1522   007FDE  3A                 	db	58	;':'
  1523   007FDF  20                 	db	32
  1524   007FE0  4F                 	db	79	;'O'
  1525   007FE1  4E                 	db	78	;'N'
  1526   007FE2  20                 	db	32
  1527   007FE3  00                 	db	0
  1528   007FE4                     STR_8:
  1529   007FE4  4C                 	db	76	;'L'
  1530   007FE5  45                 	db	69	;'E'
  1531   007FE6  44                 	db	68	;'D'
  1532   007FE7  3A                 	db	58	;':'
  1533   007FE8  20                 	db	32
  1534   007FE9  4F                 	db	79	;'O'
  1535   007FEA  46                 	db	70	;'F'
  1536   007FEB  46                 	db	70	;'F'
  1537   007FEC  00                 	db	0
  1538   007FED                     STR_5:
  1539   007FED  54                 	db	84	;'T'
  1540   007FEE  45                 	db	69	;'E'
  1541   007FEF  4D                 	db	77	;'M'
  1542   007FF0  50                 	db	80	;'P'
  1543   007FF1  3A                 	db	58	;':'
  1544   007FF2  20                 	db	32
  1545   007FF3  00                 	db	0
  1546   007FF4                     STR_4:
  1547   007FF4  41                 	db	65	;'A'
  1548   007FF5  44                 	db	68	;'D'
  1549   007FF6  43                 	db	67	;'C'
  1550   007FF7  3A                 	db	58	;':'
  1551   007FF8  20                 	db	32
  1552   007FF9  00                 	db	0
  1553   007FC1                     STR_6           equ	STR_3+12
  1554   007FFA  00                 	db	0	; dummy byte at the end
  1555   007DD4                     __smallconst    set	__pmediumconst
  1556   007DD4                     __mediumconst   set	__pmediumconst
  1557   000002                     __activetblptr  equ	2
  1558                           
  1559                           ; #config settings
  1560                           
  1561                           	psect	cinit
  1562   007402                     __pcinit:
  1563                           	callstack 0
  1564   007402                     start_initialization:
  1565                           	callstack 0
  1566   007402                     __initialization:
  1567                           	callstack 0
  1568                           
  1569                           ; Clear objects allocated to COMRAM (2 bytes)
  1570   007402  6A3A               	clrf	(__pbssCOMRAM+1)& (0+255),c
  1571   007404  6A39               	clrf	__pbssCOMRAM& (0+255),c
  1572   007406                     end_of_initialization:
  1573                           	callstack 0
  1574   007406                     __end_of__initialization:
  1575                           	callstack 0
  1576   007406  0E00               	movlw	low (__Lmediumconst shr (0+16))
  1577   007408  6EF8               	movwf	tblptru,c
  1578   00740A  0100               	movlb	0
  1579   00740C  EFF4  F03C         	goto	_main	;jump to C main() function
  1580                           
  1581                           	psect	bssCOMRAM
  1582   000039                     __pbssCOMRAM:
  1583                           	callstack 0
  1584   000039                     _oled_page:
  1585                           	callstack 0
  1586   000039                     	ds	1
  1587   00003A                     _oled_column:
  1588                           	callstack 0
  1589   00003A                     	ds	1
  1590                           
  1591                           	psect	cstackCOMRAM
  1592   000001                     __pcstackCOMRAM:
  1593                           	callstack 0
  1594   000001                     ?___lwdiv:
  1595                           	callstack 0
  1596   000001                     ?___lwmod:
  1597                           	callstack 0
  1598   000001                     ?_ADC_Read:
  1599                           	callstack 0
  1600   000001                     ?___lmul:
  1601                           	callstack 0
  1602   000001                     Process_Components@temperature_x10:
  1603                           	callstack 0
  1604   000001                     ___lwdiv@dividend:
  1605                           	callstack 0
  1606   000001                     ___lwmod@dividend:
  1607                           	callstack 0
  1608   000001                     I2C_Master_Init@clock_hz:
  1609                           	callstack 0
  1610   000001                     ___lmul@multiplier:
  1611                           	callstack 0
  1612   000001                     ??_Startup_LED_Test:
  1613   000001                     ??_I2C_Master_Wait:
  1614   000001                     
  1615                           ; 1 bytes @ 0x0
  1616   000001                     	ds	1
  1617   000002                     I2C_Master_Write@data:
  1618                           	callstack 0
  1619   000002                     
  1620                           ; 1 bytes @ 0x1
  1621   000002                     	ds	1
  1622   000003                     SSD1306_Command@command:
  1623                           	callstack 0
  1624   000003                     SSD1306_Data@data:
  1625                           	callstack 0
  1626   000003                     Startup_LED_Test@i:
  1627                           	callstack 0
  1628   000003                     ___lwdiv@divisor:
  1629                           	callstack 0
  1630   000003                     ___lwmod@divisor:
  1631                           	callstack 0
  1632   000003                     ??_ADC_Read:
  1633   000003                     
  1634                           ; 1 bytes @ 0x2
  1635   000003                     	ds	1
  1636   000004                     SSD1306_SetCursor@page:
  1637                           	callstack 0
  1638                           
  1639                           ; 1 bytes @ 0x3
  1640   000004                     	ds	1
  1641   000005                     ADC_Read@channel:
  1642                           	callstack 0
  1643   000005                     SSD1306_SetCursor@column:
  1644                           	callstack 0
  1645   000005                     ___lwmod@counter:
  1646                           	callstack 0
  1647   000005                     ___lwdiv@quotient:
  1648                           	callstack 0
  1649   000005                     ___lmul@multiplicand:
  1650                           	callstack 0
  1651   000005                     
  1652                           ; 1 bytes @ 0x4
  1653   000005                     	ds	1
  1654   000006                     SSD1306_ClearDisplay@column:
  1655                           	callstack 0
  1656   000006                     SSD1306_ClearLine@column:
  1657                           	callstack 0
  1658   000006                     ??_SSD1306_WriteChar:
  1659                           
  1660                           ; 1 bytes @ 0x5
  1661   000006                     	ds	1
  1662   000007                     SSD1306_ClearDisplay@page:
  1663                           	callstack 0
  1664   000007                     SSD1306_ClearLine@page:
  1665                           	callstack 0
  1666   000007                     ___lwdiv@counter:
  1667                           	callstack 0
  1668                           
  1669                           ; 1 bytes @ 0x6
  1670   000007                     	ds	1
  1671   000008                     UInt16_To_String@value:
  1672                           	callstack 0
  1673   000008                     ??_SSD1306_Init:
  1674                           
  1675                           ; 1 bytes @ 0x7
  1676   000008                     	ds	1
  1677   000009                     ___lmul@product:
  1678                           	callstack 0
  1679   000009                     
  1680                           ; 1 bytes @ 0x8
  1681   000009                     	ds	1
  1682   00000A                     UInt16_To_String@buffer:
  1683                           	callstack 0
  1684   00000A                     SSD1306_WriteChar@index:
  1685                           	callstack 0
  1686   00000A                     
  1687                           ; 1 bytes @ 0x9
  1688   00000A                     	ds	1
  1689   00000B                     UInt16_To_String@temp:
  1690                           	callstack 0
  1691   00000B                     
  1692                           ; 1 bytes @ 0xA
  1693   00000B                     	ds	1
  1694   00000C                     SSD1306_WriteChar@c:
  1695                           	callstack 0
  1696                           
  1697                           ; 1 bytes @ 0xB
  1698   00000C                     	ds	1
  1699   00000D                     ?___lldiv:
  1700                           	callstack 0
  1701   00000D                     SSD1306_WriteChar@i:
  1702                           	callstack 0
  1703   00000D                     ___lldiv@dividend:
  1704                           	callstack 0
  1705                           
  1706                           ; 4 bytes @ 0xC
  1707   00000D                     	ds	1
  1708   00000E                     SSD1306_WriteChar@character:
  1709                           	callstack 0
  1710                           
  1711                           ; 1 bytes @ 0xD
  1712   00000E                     	ds	1
  1713   00000F                     SSD1306_WriteString@str:
  1714                           	callstack 0
  1715                           
  1716                           ; 2 bytes @ 0xE
  1717   00000F                     	ds	2
  1718   000011                     UInt16_To_String@j:
  1719                           	callstack 0
  1720   000011                     ___lldiv@divisor:
  1721                           	callstack 0
  1722   000011                     
  1723                           ; 1 bytes @ 0x10
  1724   000011                     	ds	1
  1725   000012                     UInt16_To_String@i:
  1726                           	callstack 0
  1727                           
  1728                           ; 1 bytes @ 0x11
  1729   000012                     	ds	1
  1730   000013                     Temperature_To_String@temperature_x10:
  1731                           	callstack 0
  1732                           
  1733                           ; 2 bytes @ 0x12
  1734   000013                     	ds	2
  1735   000015                     Temperature_To_String@buffer:
  1736                           	callstack 0
  1737   000015                     ___lldiv@quotient:
  1738                           	callstack 0
  1739   000015                     
  1740                           ; 1 bytes @ 0x14
  1741   000015                     	ds	1
  1742   000016                     Temperature_To_String@integer_text:
  1743                           	callstack 0
  1744   000016                     
  1745                           ; 1 bytes @ 0x15
  1746   000016                     	ds	3
  1747   000019                     ___lldiv@counter:
  1748                           	callstack 0
  1749                           
  1750                           ; 1 bytes @ 0x18
  1751   000019                     	ds	1
  1752   00001A                     ?_Read_LM35_Temperature_X10:
  1753                           	callstack 0
  1754                           
  1755                           ; 2 bytes @ 0x19
  1756   00001A                     	ds	2
  1757   00001C                     Temperature_To_String@integer_part:
  1758                           	callstack 0
  1759   00001C                     Read_LM35_Temperature_X10@temperature_x10:
  1760                           	callstack 0
  1761   00001C                     
  1762                           ; 1 bytes @ 0x1B
  1763   00001C                     	ds	2
  1764   00001E                     Temperature_To_String@decimal_part:
  1765                           	callstack 0
  1766                           
  1767                           ; 2 bytes @ 0x1D
  1768   00001E                     	ds	2
  1769   000020                     Temperature_To_String@i:
  1770                           	callstack 0
  1771   000020                     Read_LM35_Temperature_X10@adc_value:
  1772                           	callstack 0
  1773                           
  1774                           ; 2 bytes @ 0x1F
  1775   000020                     	ds	1
  1776   000021                     Display_Update@adc_value:
  1777                           	callstack 0
  1778                           
  1779                           ; 2 bytes @ 0x20
  1780   000021                     	ds	2
  1781   000023                     Display_Update@temperature_x10:
  1782                           	callstack 0
  1783                           
  1784                           ; 2 bytes @ 0x22
  1785   000023                     	ds	2
  1786   000025                     Display_Update@temp_text:
  1787                           	callstack 0
  1788   000025                     
  1789                           ; 1 bytes @ 0x24
  1790   000025                     	ds	8
  1791   00002D                     Display_Update@adc_text:
  1792                           	callstack 0
  1793                           
  1794                           ; 6 bytes @ 0x2C
  1795   00002D                     	ds	6
  1796   000033                     ??_main:
  1797                           
  1798                           ; 1 bytes @ 0x32
  1799   000033                     	ds	2
  1800   000035                     main@adc_value:
  1801                           	callstack 0
  1802                           
  1803                           ; 2 bytes @ 0x34
  1804   000035                     	ds	2
  1805   000037                     main@temperature_x10:
  1806                           	callstack 0
  1807                           
  1808                           ; 2 bytes @ 0x36
  1809   000037                     	ds	2
  1810                           
  1811 ;;
  1812 ;;Main: autosize = 0, tempsize = 2, incstack = 0, save=0
  1813 ;;
  1814 ;; *************** function _main *****************
  1815 ;; Defined at:
  1816 ;;		line 31 in file "main.c"
  1817 ;; Parameters:    Size  Location     Type
  1818 ;;		None
  1819 ;; Auto vars:     Size  Location     Type
  1820 ;;  temperature_    2   54[COMRAM] unsigned short 
  1821 ;;  adc_value       2   52[COMRAM] unsigned short 
  1822 ;; Return value:  Size  Location     Type
  1823 ;;                  1    wreg      void 
  1824 ;; Registers used:
  1825 ;;		wreg, fsr1l, fsr1h, fsr2l, fsr2h, status,2, status,0, tblptrl, tblptrh, tblptru, prodl, prodh, cstack
  1826 ;; Tracked objects:
  1827 ;;		On entry : 0/0
  1828 ;;		On exit  : 0/0
  1829 ;;		Unchanged: 0/0
  1830 ;; Data sizes:     COMRAM   BANK0   BANK1   BANK2   BANK3   BANK4   BANK5   BANK6   BANK7
  1831 ;;      Params:         0       0       0       0       0       0       0       0       0
  1832 ;;      Locals:         4       0       0       0       0       0       0       0       0
  1833 ;;      Temps:          2       0       0       0       0       0       0       0       0
  1834 ;;      Totals:         6       0       0       0       0       0       0       0       0
  1835 ;;Total ram usage:        6 bytes
  1836 ;; Hardware stack levels required when called: 6
  1837 ;; This function calls:
  1838 ;;		_ADC_Read
  1839 ;;		_Display_Update
  1840 ;;		_Process_Components
  1841 ;;		_Read_LM35_Temperature_X10
  1842 ;;		_SSD1306_ClearDisplay
  1843 ;;		_SSD1306_SetCursor
  1844 ;;		_SSD1306_WriteString
  1845 ;;		_Startup_LED_Test
  1846 ;;		_System_Init
  1847 ;; This function is called by:
  1848 ;;		Startup code after reset
  1849 ;; This function uses a non-reentrant model
  1850 ;;
  1851                           
  1852                           	psect	text0
  1853   0079E8                     __ptext0:
  1854                           	callstack 0
  1855   0079E8                     _main:
  1856                           	callstack 25
  1857   0079E8                     
  1858                           ;main.c: 33:     uint16_t adc_value;;main.c: 34:     uint16_t temperature_x10;;main.c: 3
      +                          6:     System_Init();
  1859   0079E8  EC7C  F03A         	call	_System_Init	;wreg free
  1860                           
  1861                           ;main.c: 38:     Startup_LED_Test();
  1862   0079EC  ECB4  F03A         	call	_Startup_LED_Test	;wreg free
  1863                           
  1864                           ;main.c: 40:     SSD1306_ClearDisplay();
  1865   0079F0  ECFF  F03A         	call	_SSD1306_ClearDisplay	;wreg free
  1866                           
  1867                           ;main.c: 42:     SSD1306_SetCursor(0, 0);
  1868   0079F4  0E00               	movlw	0
  1869   0079F6  6E04               	movwf	SSD1306_SetCursor@page^0,c
  1870   0079F8  0E00               	movlw	0
  1871   0079FA  ECD9  F03A         	call	_SSD1306_SetCursor
  1872   0079FE                     
  1873                           ;main.c: 43:     SSD1306_WriteString("SENSOR LM35");
  1874   0079FE  0EC4               	movlw	low STR_1
  1875   007A00  6E0F               	movwf	SSD1306_WriteString@str^0,c
  1876   007A02  0E7F               	movlw	high STR_1
  1877   007A04  6E10               	movwf	(SSD1306_WriteString@str+1)^0,c
  1878   007A06  EC4C  F03B         	call	_SSD1306_WriteString	;wreg free
  1879   007A0A                     
  1880                           ;main.c: 45:     SSD1306_SetCursor(0, 1);
  1881   007A0A  0E01               	movlw	1
  1882   007A0C  6E04               	movwf	SSD1306_SetCursor@page^0,c
  1883   007A0E  0E00               	movlw	0
  1884   007A10  ECD9  F03A         	call	_SSD1306_SetCursor
  1885                           
  1886                           ;main.c: 46:     SSD1306_WriteString("PIC18F4550");
  1887   007A14  0ED0               	movlw	low STR_2
  1888   007A16  6E0F               	movwf	SSD1306_WriteString@str^0,c
  1889   007A18  0E7F               	movlw	high STR_2
  1890   007A1A  6E10               	movwf	(SSD1306_WriteString@str+1)^0,c
  1891   007A1C  EC4C  F03B         	call	_SSD1306_WriteString	;wreg free
  1892   007A20                     
  1893                           ;main.c: 48:     SSD1306_SetCursor(0, 6);
  1894   007A20  0E06               	movlw	6
  1895   007A22  6E04               	movwf	SSD1306_SetCursor@page^0,c
  1896   007A24  0E00               	movlw	0
  1897   007A26  ECD9  F03A         	call	_SSD1306_SetCursor
  1898   007A2A                     
  1899                           ;main.c: 49:     SSD1306_WriteString("Temp real en C");
  1900   007A2A  0EB5               	movlw	low STR_3
  1901   007A2C  6E0F               	movwf	SSD1306_WriteString@str^0,c
  1902   007A2E  0E7F               	movlw	high STR_3
  1903   007A30  6E10               	movwf	(SSD1306_WriteString@str+1)^0,c
  1904   007A32  EC4C  F03B         	call	_SSD1306_WriteString	;wreg free
  1905   007A36                     l185:
  1906                           
  1907                           ;main.c: 52:     {;main.c: 57:         adc_value = ADC_Read(0);
  1908   007A36  0E00               	movlw	0
  1909   007A38  EC92  F03A         	call	_ADC_Read
  1910   007A3C  C001  F035         	movff	?_ADC_Read,main@adc_value
  1911   007A40  C002  F036         	movff	?_ADC_Read+1,main@adc_value+1
  1912                           
  1913                           ;main.c: 63:         temperature_x10 = Read_LM35_Temperature_X10();
  1914   007A44  ECE2  F03B         	call	_Read_LM35_Temperature_X10	;wreg free
  1915   007A48  C01A  F037         	movff	?_Read_LM35_Temperature_X10,main@temperature_x10
  1916   007A4C  C01B  F038         	movff	?_Read_LM35_Temperature_X10+1,main@temperature_x10+1
  1917                           
  1918                           ;main.c: 70:         Process_Components(temperature_x10);
  1919   007A50  C037  F001         	movff	main@temperature_x10,Process_Components@temperature_x10
  1920   007A54  C038  F002         	movff	main@temperature_x10+1,Process_Components@temperature_x10+1
  1921   007A58  EC59  F03A         	call	_Process_Components	;wreg free
  1922   007A5C                     
  1923                           ;main.c: 76:         Display_Update(adc_value, temperature_x10);
  1924   007A5C  C035  F021         	movff	main@adc_value,Display_Update@adc_value
  1925   007A60  C036  F022         	movff	main@adc_value+1,Display_Update@adc_value+1
  1926   007A64  C037  F023         	movff	main@temperature_x10,Display_Update@temperature_x10
  1927   007A68  C038  F024         	movff	main@temperature_x10+1,Display_Update@temperature_x10+1
  1928   007A6C  ECA2  F03D         	call	_Display_Update	;wreg free
  1929   007A70                     
  1930                           ;main.c: 78:         _delay((unsigned long)((500)*(8000000UL/4000.0)));
  1931   007A70  0E06               	movlw	6
  1932   007A72  6E34               	movwf	(??_main+1)^0,c
  1933   007A74  0E13               	movlw	19
  1934   007A76  6E33               	movwf	??_main^0,c
  1935   007A78  0EAE               	movlw	174
  1936   007A7A                     u777:
  1937   007A7A  2EE8               	decfsz	wreg,f,c
  1938   007A7C  D7FE               	bra	u777
  1939   007A7E  2E33               	decfsz	??_main^0,f,c
  1940   007A80  D7FC               	bra	u777
  1941   007A82  2E34               	decfsz	(??_main+1)^0,f,c
  1942   007A84  D7FA               	bra	u777
  1943   007A86  EF1B  F03D         	goto	l185
  1944   007A8A  EFFE  F03F         	goto	start
  1945   007A8E                     __end_of_main:
  1946                           	callstack 0
  1947                           
  1948 ;; *************** function _System_Init *****************
  1949 ;; Defined at:
  1950 ;;		line 82 in file "main.c"
  1951 ;; Parameters:    Size  Location     Type
  1952 ;;		None
  1953 ;; Auto vars:     Size  Location     Type
  1954 ;;		None
  1955 ;; Return value:  Size  Location     Type
  1956 ;;                  1    wreg      void 
  1957 ;; Registers used:
  1958 ;;		wreg, status,2, status,0, cstack
  1959 ;; Tracked objects:
  1960 ;;		On entry : 0/0
  1961 ;;		On exit  : 0/0
  1962 ;;		Unchanged: 0/0
  1963 ;; Data sizes:     COMRAM   BANK0   BANK1   BANK2   BANK3   BANK4   BANK5   BANK6   BANK7
  1964 ;;      Params:         0       0       0       0       0       0       0       0       0
  1965 ;;      Locals:         0       0       0       0       0       0       0       0       0
  1966 ;;      Temps:          0       0       0       0       0       0       0       0       0
  1967 ;;      Totals:         0       0       0       0       0       0       0       0       0
  1968 ;;Total ram usage:        0 bytes
  1969 ;; Hardware stack levels used: 1
  1970 ;; Hardware stack levels required when called: 2
  1971 ;; This function calls:
  1972 ;;		_ADC_Init
  1973 ;;		_I2C_Master_Init
  1974 ;;		_SSD1306_Init
  1975 ;; This function is called by:
  1976 ;;		_main
  1977 ;; This function uses a non-reentrant model
  1978 ;;
  1979                           
  1980                           	psect	text1
  1981   0074F8                     __ptext1:
  1982                           	callstack 0
  1983   0074F8                     _System_Init:
  1984                           	callstack 28
  1985   0074F8                     
  1986                           ;main.c: 88:     OSCCON = 0x72;
  1987   0074F8  0E72               	movlw	114
  1988   0074FA  6ED3               	movwf	211,c	;volatile
  1989                           
  1990                           ;main.c: 94:     CMCON = 0x07;
  1991   0074FC  0E07               	movlw	7
  1992   0074FE  6EB4               	movwf	180,c	;volatile
  1993   007500                     
  1994                           ;main.c: 95:     CVRCON = 0x00;
  1995   007500  6AB5               	clrf	181,c	;volatile
  1996   007502                     
  1997                           ;main.c: 101:     TRISDbits.TRISD0 = 0;
  1998   007502  9095               	bcf	149,0,c	;volatile
  1999   007504                     
  2000                           ;main.c: 102:     LATDbits.LATD0 = 0;
  2001   007504  908C               	bcf	140,0,c	;volatile
  2002   007506                     
  2003                           ;main.c: 109:     ADC_Init();
  2004   007506  EC08  F03A         	call	_ADC_Init	;wreg free
  2005   00750A                     
  2006                           ;main.c: 121:     I2C_Master_Init(100000UL);
  2007   00750A  0EA0               	movlw	160
  2008   00750C  6E01               	movwf	I2C_Master_Init@clock_hz^0,c
  2009   00750E  0E86               	movlw	134
  2010   007510  6E02               	movwf	(I2C_Master_Init@clock_hz+1)^0,c
  2011   007512  0E01               	movlw	1
  2012   007514  6E03               	movwf	(I2C_Master_Init@clock_hz+2)^0,c
  2013   007516  0E00               	movlw	0
  2014   007518  6E04               	movwf	(I2C_Master_Init@clock_hz+3)^0,c
  2015   00751A  EC2F  F03A         	call	_I2C_Master_Init	;wreg free
  2016   00751E                     
  2017                           ;main.c: 127:     SSD1306_Init();
  2018   00751E  EC00  F03E         	call	_SSD1306_Init	;wreg free
  2019   007522  0012               	return		;funcret
  2020   007524                     __end_of_System_Init:
  2021                           	callstack 0
  2022                           
  2023 ;; *************** function _SSD1306_Init *****************
  2024 ;; Defined at:
  2025 ;;		line 273 in file "ssd1306.c"
  2026 ;; Parameters:    Size  Location     Type
  2027 ;;		None
  2028 ;; Auto vars:     Size  Location     Type
  2029 ;;		None
  2030 ;; Return value:  Size  Location     Type
  2031 ;;                  1    wreg      void 
  2032 ;; Registers used:
  2033 ;;		wreg, status,2, status,0, cstack
  2034 ;; Tracked objects:
  2035 ;;		On entry : 0/0
  2036 ;;		On exit  : 0/0
  2037 ;;		Unchanged: 0/0
  2038 ;; Data sizes:     COMRAM   BANK0   BANK1   BANK2   BANK3   BANK4   BANK5   BANK6   BANK7
  2039 ;;      Params:         0       0       0       0       0       0       0       0       0
  2040 ;;      Locals:         0       0       0       0       0       0       0       0       0
  2041 ;;      Temps:          2       0       0       0       0       0       0       0       0
  2042 ;;      Totals:         2       0       0       0       0       0       0       0       0
  2043 ;;Total ram usage:        2 bytes
  2044 ;; Hardware stack levels used: 1
  2045 ;; Hardware stack levels required when called: 1
  2046 ;; This function calls:
  2047 ;;		_SSD1306_ClearDisplay
  2048 ;;		_SSD1306_Command
  2049 ;; This function is called by:
  2050 ;;		_System_Init
  2051 ;; This function uses a non-reentrant model
  2052 ;;
  2053                           
  2054                           	psect	text2
  2055   007C00                     __ptext2:
  2056                           	callstack 0
  2057   007C00                     _SSD1306_Init:
  2058                           	callstack 28
  2059   007C00                     
  2060                           ;ssd1306.c: 275:     _delay((unsigned long)((100)*(8000000UL/4000.0)));
  2061   007C00  0E02               	movlw	2
  2062   007C02  6E09               	movwf	(??_SSD1306_Init+1)^0,c
  2063   007C04  0E04               	movlw	4
  2064   007C06  6E08               	movwf	??_SSD1306_Init^0,c
  2065   007C08  0EBA               	movlw	186
  2066   007C0A                     u787:
  2067   007C0A  2EE8               	decfsz	wreg,f,c
  2068   007C0C  D7FE               	bra	u787
  2069   007C0E  2E08               	decfsz	??_SSD1306_Init^0,f,c
  2070   007C10  D7FC               	bra	u787
  2071   007C12  2E09               	decfsz	(??_SSD1306_Init+1)^0,f,c
  2072   007C14  D7FA               	bra	u787
  2073   007C16  D000               	nop2	
  2074   007C18                     
  2075                           ;ssd1306.c: 277:     SSD1306_Command(0xAE);
  2076   007C18  0EAE               	movlw	174
  2077   007C1A  EC3A  F03A         	call	_SSD1306_Command
  2078   007C1E                     
  2079                           ;ssd1306.c: 279:     SSD1306_Command(0x20);
  2080   007C1E  0E20               	movlw	32
  2081   007C20  EC3A  F03A         	call	_SSD1306_Command
  2082   007C24                     
  2083                           ;ssd1306.c: 280:     SSD1306_Command(0x02);
  2084   007C24  0E02               	movlw	2
  2085   007C26  EC3A  F03A         	call	_SSD1306_Command
  2086   007C2A                     
  2087                           ;ssd1306.c: 282:     SSD1306_Command(0xB0);
  2088   007C2A  0EB0               	movlw	176
  2089   007C2C  EC3A  F03A         	call	_SSD1306_Command
  2090   007C30                     
  2091                           ;ssd1306.c: 283:     SSD1306_Command(0xC8);
  2092   007C30  0EC8               	movlw	200
  2093   007C32  EC3A  F03A         	call	_SSD1306_Command
  2094   007C36                     
  2095                           ;ssd1306.c: 284:     SSD1306_Command(0x00);
  2096   007C36  0E00               	movlw	0
  2097   007C38  EC3A  F03A         	call	_SSD1306_Command
  2098   007C3C                     
  2099                           ;ssd1306.c: 285:     SSD1306_Command(0x10);
  2100   007C3C  0E10               	movlw	16
  2101   007C3E  EC3A  F03A         	call	_SSD1306_Command
  2102   007C42                     
  2103                           ;ssd1306.c: 286:     SSD1306_Command(0x40);
  2104   007C42  0E40               	movlw	64
  2105   007C44  EC3A  F03A         	call	_SSD1306_Command
  2106   007C48                     
  2107                           ;ssd1306.c: 288:     SSD1306_Command(0x81);
  2108   007C48  0E81               	movlw	129
  2109   007C4A  EC3A  F03A         	call	_SSD1306_Command
  2110   007C4E                     
  2111                           ;ssd1306.c: 289:     SSD1306_Command(0x7F);
  2112   007C4E  0E7F               	movlw	127
  2113   007C50  EC3A  F03A         	call	_SSD1306_Command
  2114   007C54                     
  2115                           ;ssd1306.c: 291:     SSD1306_Command(0xA1);
  2116   007C54  0EA1               	movlw	161
  2117   007C56  EC3A  F03A         	call	_SSD1306_Command
  2118   007C5A                     
  2119                           ;ssd1306.c: 292:     SSD1306_Command(0xA6);
  2120   007C5A  0EA6               	movlw	166
  2121   007C5C  EC3A  F03A         	call	_SSD1306_Command
  2122   007C60                     
  2123                           ;ssd1306.c: 294:     SSD1306_Command(0xA8);
  2124   007C60  0EA8               	movlw	168
  2125   007C62  EC3A  F03A         	call	_SSD1306_Command
  2126   007C66                     
  2127                           ;ssd1306.c: 295:     SSD1306_Command(0x3F);
  2128   007C66  0E3F               	movlw	63
  2129   007C68  EC3A  F03A         	call	_SSD1306_Command
  2130   007C6C                     
  2131                           ;ssd1306.c: 297:     SSD1306_Command(0xA4);
  2132   007C6C  0EA4               	movlw	164
  2133   007C6E  EC3A  F03A         	call	_SSD1306_Command
  2134   007C72                     
  2135                           ;ssd1306.c: 299:     SSD1306_Command(0xD3);
  2136   007C72  0ED3               	movlw	211
  2137   007C74  EC3A  F03A         	call	_SSD1306_Command
  2138   007C78                     
  2139                           ;ssd1306.c: 300:     SSD1306_Command(0x00);
  2140   007C78  0E00               	movlw	0
  2141   007C7A  EC3A  F03A         	call	_SSD1306_Command
  2142   007C7E                     
  2143                           ;ssd1306.c: 302:     SSD1306_Command(0xD5);
  2144   007C7E  0ED5               	movlw	213
  2145   007C80  EC3A  F03A         	call	_SSD1306_Command
  2146   007C84                     
  2147                           ;ssd1306.c: 303:     SSD1306_Command(0x80);
  2148   007C84  0E80               	movlw	128
  2149   007C86  EC3A  F03A         	call	_SSD1306_Command
  2150   007C8A                     
  2151                           ;ssd1306.c: 305:     SSD1306_Command(0xD9);
  2152   007C8A  0ED9               	movlw	217
  2153   007C8C  EC3A  F03A         	call	_SSD1306_Command
  2154   007C90                     
  2155                           ;ssd1306.c: 306:     SSD1306_Command(0xF1);
  2156   007C90  0EF1               	movlw	241
  2157   007C92  EC3A  F03A         	call	_SSD1306_Command
  2158   007C96                     
  2159                           ;ssd1306.c: 308:     SSD1306_Command(0xDA);
  2160   007C96  0EDA               	movlw	218
  2161   007C98  EC3A  F03A         	call	_SSD1306_Command
  2162   007C9C                     
  2163                           ;ssd1306.c: 309:     SSD1306_Command(0x12);
  2164   007C9C  0E12               	movlw	18
  2165   007C9E  EC3A  F03A         	call	_SSD1306_Command
  2166   007CA2                     
  2167                           ;ssd1306.c: 311:     SSD1306_Command(0xDB);
  2168   007CA2  0EDB               	movlw	219
  2169   007CA4  EC3A  F03A         	call	_SSD1306_Command
  2170   007CA8                     
  2171                           ;ssd1306.c: 312:     SSD1306_Command(0x40);
  2172   007CA8  0E40               	movlw	64
  2173   007CAA  EC3A  F03A         	call	_SSD1306_Command
  2174   007CAE                     
  2175                           ;ssd1306.c: 314:     SSD1306_Command(0x8D);
  2176   007CAE  0E8D               	movlw	141
  2177   007CB0  EC3A  F03A         	call	_SSD1306_Command
  2178   007CB4                     
  2179                           ;ssd1306.c: 315:     SSD1306_Command(0x14);
  2180   007CB4  0E14               	movlw	20
  2181   007CB6  EC3A  F03A         	call	_SSD1306_Command
  2182   007CBA                     
  2183                           ;ssd1306.c: 317:     SSD1306_Command(0xAF);
  2184   007CBA  0EAF               	movlw	175
  2185   007CBC  EC3A  F03A         	call	_SSD1306_Command
  2186   007CC0                     
  2187                           ;ssd1306.c: 319:     SSD1306_ClearDisplay();
  2188   007CC0  ECFF  F03A         	call	_SSD1306_ClearDisplay	;wreg free
  2189   007CC4  0012               	return		;funcret
  2190   007CC6                     __end_of_SSD1306_Init:
  2191                           	callstack 0
  2192                           
  2193 ;; *************** function _SSD1306_ClearDisplay *****************
  2194 ;; Defined at:
  2195 ;;		line 157 in file "ssd1306.c"
  2196 ;; Parameters:    Size  Location     Type
  2197 ;;		None
  2198 ;; Auto vars:     Size  Location     Type
  2199 ;;  page            1    6[COMRAM] unsigned char 
  2200 ;;  column          1    5[COMRAM] unsigned char 
  2201 ;; Return value:  Size  Location     Type
  2202 ;;                  1    wreg      void 
  2203 ;; Registers used:
  2204 ;;		wreg, status,2, status,0, cstack
  2205 ;; Tracked objects:
  2206 ;;		On entry : 0/0
  2207 ;;		On exit  : 0/0
  2208 ;;		Unchanged: 0/0
  2209 ;; Data sizes:     COMRAM   BANK0   BANK1   BANK2   BANK3   BANK4   BANK5   BANK6   BANK7
  2210 ;;      Params:         0       0       0       0       0       0       0       0       0
  2211 ;;      Locals:         2       0       0       0       0       0       0       0       0
  2212 ;;      Temps:          0       0       0       0       0       0       0       0       0
  2213 ;;      Totals:         2       0       0       0       0       0       0       0       0
  2214 ;;Total ram usage:        2 bytes
  2215 ;; Hardware stack levels used: 1
  2216 ;; This function calls:
  2217 ;;		_SSD1306_Data
  2218 ;;		_SSD1306_SetCursor
  2219 ;;		_SSD1306_StartData
  2220 ;;		_SSD1306_StopData
  2221 ;; This function is called by:
  2222 ;;		_SSD1306_Init
  2223 ;;		_main
  2224 ;; This function uses a non-reentrant model
  2225 ;;
  2226                           
  2227                           	psect	text3
  2228   0075FE                     __ptext3:
  2229                           	callstack 0
  2230   0075FE                     _SSD1306_ClearDisplay:
  2231                           	callstack 28
  2232   0075FE                     
  2233                           ;ssd1306.c: 159:     uint8_t page;;ssd1306.c: 160:     uint8_t column;;ssd1306.c: 162:  
      +                             for (page = 0; page < 8; page++)
  2234   0075FE  6A07               	clrf	SSD1306_ClearDisplay@page^0,c
  2235   007600                     l1495:
  2236                           
  2237                           ;ssd1306.c: 163:     {;ssd1306.c: 164:         SSD1306_SetCursor(0, page);
  2238   007600  C007  F004         	movff	SSD1306_ClearDisplay@page,SSD1306_SetCursor@page
  2239   007604  0E00               	movlw	0
  2240   007606  ECD9  F03A         	call	_SSD1306_SetCursor
  2241                           
  2242                           ;ssd1306.c: 166:         SSD1306_StartData();
  2243   00760A  EC10  F03A         	call	_SSD1306_StartData	;wreg free
  2244   00760E                     
  2245                           ;ssd1306.c: 168:         for (column = 0; column < 128; column++)
  2246   00760E  6A06               	clrf	SSD1306_ClearDisplay@column^0,c
  2247   007610                     l1503:
  2248                           
  2249                           ;ssd1306.c: 169:         {;ssd1306.c: 170:             SSD1306_Data(0x00);
  2250   007610  0E00               	movlw	0
  2251   007612  ECFC  F039         	call	_SSD1306_Data
  2252   007616                     
  2253                           ;ssd1306.c: 171:         }
  2254   007616  2A06               	incf	SSD1306_ClearDisplay@column^0,f,c
  2255   007618  0E7F               	movlw	127
  2256   00761A  6406               	cpfsgt	SSD1306_ClearDisplay@column^0,c
  2257   00761C  EF12  F03B         	goto	u501
  2258   007620  EF14  F03B         	goto	u500
  2259   007624                     u501:
  2260   007624  EF08  F03B         	goto	l1503
  2261   007628                     u500:
  2262   007628                     
  2263                           ;ssd1306.c: 173:         SSD1306_StopData();
  2264   007628  ECF9  F039         	call	_SSD1306_StopData	;wreg free
  2265   00762C                     
  2266                           ;ssd1306.c: 174:     }
  2267   00762C  2A07               	incf	SSD1306_ClearDisplay@page^0,f,c
  2268   00762E  0E07               	movlw	7
  2269   007630  6407               	cpfsgt	SSD1306_ClearDisplay@page^0,c
  2270   007632  EF1D  F03B         	goto	u511
  2271   007636  EF1F  F03B         	goto	u510
  2272   00763A                     u511:
  2273   00763A  EF00  F03B         	goto	l1495
  2274   00763E                     u510:
  2275   00763E                     
  2276                           ;ssd1306.c: 176:     SSD1306_SetCursor(0, 0);
  2277   00763E  0E00               	movlw	0
  2278   007640  6E04               	movwf	SSD1306_SetCursor@page^0,c
  2279   007642  0E00               	movlw	0
  2280   007644  ECD9  F03A         	call	_SSD1306_SetCursor
  2281   007648  0012               	return		;funcret
  2282   00764A                     __end_of_SSD1306_ClearDisplay:
  2283                           	callstack 0
  2284                           
  2285 ;; *************** function _I2C_Master_Init *****************
  2286 ;; Defined at:
  2287 ;;		line 15 in file "i2c_master.c"
  2288 ;; Parameters:    Size  Location     Type
  2289 ;;  clock_hz        4    0[COMRAM] unsigned long 
  2290 ;; Auto vars:     Size  Location     Type
  2291 ;;		None
  2292 ;; Return value:  Size  Location     Type
  2293 ;;                  1    wreg      void 
  2294 ;; Registers used:
  2295 ;;		wreg, status,2
  2296 ;; Tracked objects:
  2297 ;;		On entry : 0/0
  2298 ;;		On exit  : 0/0
  2299 ;;		Unchanged: 0/0
  2300 ;; Data sizes:     COMRAM   BANK0   BANK1   BANK2   BANK3   BANK4   BANK5   BANK6   BANK7
  2301 ;;      Params:         4       0       0       0       0       0       0       0       0
  2302 ;;      Locals:         0       0       0       0       0       0       0       0       0
  2303 ;;      Temps:          0       0       0       0       0       0       0       0       0
  2304 ;;      Totals:         4       0       0       0       0       0       0       0       0
  2305 ;;Total ram usage:        4 bytes
  2306 ;; Hardware stack levels used: 1
  2307 ;; This function calls:
  2308 ;;		Nothing
  2309 ;; This function is called by:
  2310 ;;		_System_Init
  2311 ;; This function uses a non-reentrant model
  2312 ;;
  2313                           
  2314                           	psect	text4
  2315   00745E                     __ptext4:
  2316                           	callstack 0
  2317   00745E                     _I2C_Master_Init:
  2318                           	callstack 29
  2319   00745E                     
  2320                           ;i2c_master.c: 15: void I2C_Master_Init(uint32_t clock_hz);i2c_master.c: 16: {;i2c_maste
      +                          r.c: 17:     TRISBbits.TRISB0 = 1;
  2321   00745E  8093               	bsf	147,0,c	;volatile
  2322                           
  2323                           ;i2c_master.c: 18:     TRISBbits.TRISB1 = 1;
  2324   007460  8293               	bsf	147,1,c	;volatile
  2325   007462                     
  2326                           ;i2c_master.c: 20:     SSPSTAT = 0x80;
  2327   007462  0E80               	movlw	128
  2328   007464  6EC7               	movwf	199,c	;volatile
  2329                           
  2330                           ;i2c_master.c: 21:     SSPCON1 = 0b00101000;
  2331   007466  0E28               	movlw	40
  2332   007468  6EC6               	movwf	198,c	;volatile
  2333   00746A                     
  2334                           ;i2c_master.c: 22:     SSPCON2 = 0x00;
  2335   00746A  6AC5               	clrf	197,c	;volatile
  2336                           
  2337                           ;i2c_master.c: 32:     SSPADD = 119u;
  2338   00746C  0E77               	movlw	119
  2339   00746E  6EC8               	movwf	200,c	;volatile
  2340   007470                     
  2341                           ;i2c_master.c: 34:     PIR1bits.SSPIF = 0;
  2342   007470  969E               	bcf	158,3,c	;volatile
  2343   007472  0012               	return		;funcret
  2344   007474                     __end_of_I2C_Master_Init:
  2345                           	callstack 0
  2346                           
  2347 ;; *************** function _ADC_Init *****************
  2348 ;; Defined at:
  2349 ;;		line 13 in file "adc.c"
  2350 ;; Parameters:    Size  Location     Type
  2351 ;;		None
  2352 ;; Auto vars:     Size  Location     Type
  2353 ;;		None
  2354 ;; Return value:  Size  Location     Type
  2355 ;;                  1    wreg      void 
  2356 ;; Registers used:
  2357 ;;		wreg, status,2
  2358 ;; Tracked objects:
  2359 ;;		On entry : 0/0
  2360 ;;		On exit  : 0/0
  2361 ;;		Unchanged: 0/0
  2362 ;; Data sizes:     COMRAM   BANK0   BANK1   BANK2   BANK3   BANK4   BANK5   BANK6   BANK7
  2363 ;;      Params:         0       0       0       0       0       0       0       0       0
  2364 ;;      Locals:         0       0       0       0       0       0       0       0       0
  2365 ;;      Temps:          0       0       0       0       0       0       0       0       0
  2366 ;;      Totals:         0       0       0       0       0       0       0       0       0
  2367 ;;Total ram usage:        0 bytes
  2368 ;; Hardware stack levels used: 1
  2369 ;; This function calls:
  2370 ;;		Nothing
  2371 ;; This function is called by:
  2372 ;;		_System_Init
  2373 ;; This function uses a non-reentrant model
  2374 ;;
  2375                           
  2376                           	psect	text5
  2377   007410                     __ptext5:
  2378                           	callstack 0
  2379   007410                     _ADC_Init:
  2380                           	callstack 29
  2381   007410                     
  2382                           ;adc.c: 19:     TRISAbits.TRISA0 = 1;
  2383   007410  8092               	bsf	146,0,c	;volatile
  2384   007412                     
  2385                           ;adc.c: 27:     ADCON0 = 0x01;
  2386   007412  0E01               	movlw	1
  2387   007414  6EC2               	movwf	194,c	;volatile
  2388                           
  2389                           ;adc.c: 37:     ADCON1 = 0x0E;
  2390   007416  0E0E               	movlw	14
  2391   007418  6EC1               	movwf	193,c	;volatile
  2392                           
  2393                           ;adc.c: 46:     ADCON2 = 0xAA;
  2394   00741A  0EAA               	movlw	170
  2395   00741C  6EC0               	movwf	192,c	;volatile
  2396   00741E  0012               	return		;funcret
  2397   007420                     __end_of_ADC_Init:
  2398                           	callstack 0
  2399                           
  2400 ;; *************** function _Startup_LED_Test *****************
  2401 ;; Defined at:
  2402 ;;		line 130 in file "main.c"
  2403 ;; Parameters:    Size  Location     Type
  2404 ;;		None
  2405 ;; Auto vars:     Size  Location     Type
  2406 ;;  i               1    2[COMRAM] unsigned char 
  2407 ;; Return value:  Size  Location     Type
  2408 ;;                  1    wreg      void 
  2409 ;; Registers used:
  2410 ;;		wreg, status,2, status,0
  2411 ;; Tracked objects:
  2412 ;;		On entry : 0/0
  2413 ;;		On exit  : 0/0
  2414 ;;		Unchanged: 0/0
  2415 ;; Data sizes:     COMRAM   BANK0   BANK1   BANK2   BANK3   BANK4   BANK5   BANK6   BANK7
  2416 ;;      Params:         0       0       0       0       0       0       0       0       0
  2417 ;;      Locals:         1       0       0       0       0       0       0       0       0
  2418 ;;      Temps:          2       0       0       0       0       0       0       0       0
  2419 ;;      Totals:         3       0       0       0       0       0       0       0       0
  2420 ;;Total ram usage:        3 bytes
  2421 ;; Hardware stack levels used: 1
  2422 ;; This function calls:
  2423 ;;		Nothing
  2424 ;; This function is called by:
  2425 ;;		_main
  2426 ;; This function uses a non-reentrant model
  2427 ;;
  2428                           
  2429                           	psect	text6
  2430   007568                     __ptext6:
  2431                           	callstack 0
  2432   007568                     _Startup_LED_Test:
  2433                           	callstack 30
  2434   007568                     
  2435                           ;main.c: 132:     uint8_t i;;main.c: 134:     for (i = 0; i < 3; i++)
  2436   007568  6A03               	clrf	Startup_LED_Test@i^0,c
  2437   00756A                     l194:
  2438                           
  2439                           ;main.c: 135:     {;main.c: 136:         LATDbits.LATD0 = 1;
  2440   00756A  808C               	bsf	140,0,c	;volatile
  2441   00756C                     
  2442                           ;main.c: 137:         _delay((unsigned long)((150)*(8000000UL/4000.0)));
  2443   00756C  0E02               	movlw	2
  2444   00756E  6E02               	movwf	(??_Startup_LED_Test+1)^0,c
  2445   007570  0E86               	movlw	134
  2446   007572  6E01               	movwf	??_Startup_LED_Test^0,c
  2447   007574  0E99               	movlw	153
  2448   007576                     u797:
  2449   007576  2EE8               	decfsz	wreg,f,c
  2450   007578  D7FE               	bra	u797
  2451   00757A  2E01               	decfsz	??_Startup_LED_Test^0,f,c
  2452   00757C  D7FC               	bra	u797
  2453   00757E  2E02               	decfsz	(??_Startup_LED_Test+1)^0,f,c
  2454   007580  D7FA               	bra	u797
  2455   007582  0000               	nop	
  2456   007584                     
  2457                           ;main.c: 139:         LATDbits.LATD0 = 0;
  2458   007584  908C               	bcf	140,0,c	;volatile
  2459                           
  2460                           ;main.c: 140:         _delay((unsigned long)((150)*(8000000UL/4000.0)));
  2461   007586  0E02               	movlw	2
  2462   007588  6E02               	movwf	(??_Startup_LED_Test+1)^0,c
  2463   00758A  0E86               	movlw	134
  2464   00758C  6E01               	movwf	??_Startup_LED_Test^0,c
  2465   00758E  0E99               	movlw	153
  2466   007590                     u807:
  2467   007590  2EE8               	decfsz	wreg,f,c
  2468   007592  D7FE               	bra	u807
  2469   007594  2E01               	decfsz	??_Startup_LED_Test^0,f,c
  2470   007596  D7FC               	bra	u807
  2471   007598  2E02               	decfsz	(??_Startup_LED_Test+1)^0,f,c
  2472   00759A  D7FA               	bra	u807
  2473   00759C  0000               	nop	
  2474   00759E                     
  2475                           ;main.c: 141:     }
  2476   00759E  2A03               	incf	Startup_LED_Test@i^0,f,c
  2477   0075A0  0E02               	movlw	2
  2478   0075A2  6403               	cpfsgt	Startup_LED_Test@i^0,c
  2479   0075A4  EFD6  F03A         	goto	u391
  2480   0075A8  EFD8  F03A         	goto	u390
  2481   0075AC                     u391:
  2482   0075AC  EFB5  F03A         	goto	l194
  2483   0075B0                     u390:
  2484   0075B0  0012               	return		;funcret
  2485   0075B2                     __end_of_Startup_LED_Test:
  2486                           	callstack 0
  2487                           
  2488 ;; *************** function _Read_LM35_Temperature_X10 *****************
  2489 ;; Defined at:
  2490 ;;		line 144 in file "main.c"
  2491 ;; Parameters:    Size  Location     Type
  2492 ;;		None
  2493 ;; Auto vars:     Size  Location     Type
  2494 ;;  temperature_    4   27[COMRAM] unsigned long 
  2495 ;;  adc_value       2   31[COMRAM] unsigned short 
  2496 ;; Return value:  Size  Location     Type
  2497 ;;                  2   25[COMRAM] unsigned short 
  2498 ;; Registers used:
  2499 ;;		wreg, status,2, status,0, cstack
  2500 ;; Tracked objects:
  2501 ;;		On entry : 0/0
  2502 ;;		On exit  : 0/0
  2503 ;;		Unchanged: 0/0
  2504 ;; Data sizes:     COMRAM   BANK0   BANK1   BANK2   BANK3   BANK4   BANK5   BANK6   BANK7
  2505 ;;      Params:         2       0       0       0       0       0       0       0       0
  2506 ;;      Locals:         6       0       0       0       0       0       0       0       0
  2507 ;;      Temps:          0       0       0       0       0       0       0       0       0
  2508 ;;      Totals:         8       0       0       0       0       0       0       0       0
  2509 ;;Total ram usage:        8 bytes
  2510 ;; Hardware stack levels used: 1
  2511 ;; Hardware stack levels required when called: 1
  2512 ;; This function calls:
  2513 ;;		_ADC_Read
  2514 ;;		___lldiv
  2515 ;;		___lmul
  2516 ;; This function is called by:
  2517 ;;		_main
  2518 ;; This function uses a non-reentrant model
  2519 ;;
  2520                           
  2521                           	psect	text7
  2522   0077C4                     __ptext7:
  2523                           	callstack 0
  2524   0077C4                     _Read_LM35_Temperature_X10:
  2525                           	callstack 29
  2526   0077C4                     
  2527                           ;main.c: 146:     uint16_t adc_value;;main.c: 147:     uint32_t temperature_x10;;main.c:
      +                           153:     adc_value = ADC_Read(0);
  2528   0077C4  0E00               	movlw	0
  2529   0077C6  EC92  F03A         	call	_ADC_Read
  2530   0077CA  C001  F020         	movff	?_ADC_Read,Read_LM35_Temperature_X10@adc_value
  2531   0077CE  C002  F021         	movff	?_ADC_Read+1,Read_LM35_Temperature_X10@adc_value+1
  2532                           
  2533                           ;main.c: 177:     temperature_x10 = ((uint32_t)adc_value * 5000UL) / 1023UL;
  2534   0077D2  C020  F001         	movff	Read_LM35_Temperature_X10@adc_value,___lmul@multiplier
  2535   0077D6  C021  F002         	movff	Read_LM35_Temperature_X10@adc_value+1,___lmul@multiplier+1
  2536   0077DA  6A03               	clrf	(___lmul@multiplier+2)^0,c
  2537   0077DC  6A04               	clrf	(___lmul@multiplier+3)^0,c
  2538   0077DE  0E88               	movlw	136
  2539   0077E0  6E05               	movwf	___lmul@multiplicand^0,c
  2540   0077E2  0E13               	movlw	19
  2541   0077E4  6E06               	movwf	(___lmul@multiplicand+1)^0,c
  2542   0077E6  0E00               	movlw	0
  2543   0077E8  6E07               	movwf	(___lmul@multiplicand+2)^0,c
  2544   0077EA  0E00               	movlw	0
  2545   0077EC  6E08               	movwf	(___lmul@multiplicand+3)^0,c
  2546   0077EE  ECAD  F03B         	call	___lmul	;wreg free
  2547   0077F2  C001  F00D         	movff	?___lmul,___lldiv@dividend
  2548   0077F6  C002  F00E         	movff	?___lmul+1,___lldiv@dividend+1
  2549   0077FA  C003  F00F         	movff	?___lmul+2,___lldiv@dividend+2
  2550   0077FE  C004  F010         	movff	?___lmul+3,___lldiv@dividend+3
  2551   007802  0EFF               	movlw	255
  2552   007804  6E11               	movwf	___lldiv@divisor^0,c
  2553   007806  0E03               	movlw	3
  2554   007808  6E12               	movwf	(___lldiv@divisor+1)^0,c
  2555   00780A  0E00               	movlw	0
  2556   00780C  6E13               	movwf	(___lldiv@divisor+2)^0,c
  2557   00780E  0E00               	movlw	0
  2558   007810  6E14               	movwf	(___lldiv@divisor+3)^0,c
  2559   007812  ECA2  F03C         	call	___lldiv	;wreg free
  2560   007816  C00D  F01C         	movff	?___lldiv,Read_LM35_Temperature_X10@temperature_x10
  2561   00781A  C00E  F01D         	movff	?___lldiv+1,Read_LM35_Temperature_X10@temperature_x10+1
  2562   00781E  C00F  F01E         	movff	?___lldiv+2,Read_LM35_Temperature_X10@temperature_x10+2
  2563   007822  C010  F01F         	movff	?___lldiv+3,Read_LM35_Temperature_X10@temperature_x10+3
  2564   007826                     
  2565                           ;main.c: 179:     return (uint16_t)temperature_x10;
  2566   007826  C01C  F01A         	movff	Read_LM35_Temperature_X10@temperature_x10,?_Read_LM35_Temperature_X10
  2567   00782A  C01D  F01B         	movff	Read_LM35_Temperature_X10@temperature_x10+1,?_Read_LM35_Temperature_X10+1
  2568   00782E  0012               	return		;funcret
  2569   007830                     __end_of_Read_LM35_Temperature_X10:
  2570                           	callstack 0
  2571                           
  2572 ;; *************** function ___lmul *****************
  2573 ;; Defined at:
  2574 ;;		line 15 in file "C:\Program Files\Microchip\xc8\v3.10\pic\sources\c99\common\Umul32.c"
  2575 ;; Parameters:    Size  Location     Type
  2576 ;;  multiplier      4    0[COMRAM] unsigned long 
  2577 ;;  multiplicand    4    4[COMRAM] unsigned long 
  2578 ;; Auto vars:     Size  Location     Type
  2579 ;;  product         4    8[COMRAM] unsigned long 
  2580 ;; Return value:  Size  Location     Type
  2581 ;;                  4    0[COMRAM] unsigned long 
  2582 ;; Registers used:
  2583 ;;		wreg, status,2, status,0
  2584 ;; Tracked objects:
  2585 ;;		On entry : 0/0
  2586 ;;		On exit  : 0/0
  2587 ;;		Unchanged: 0/0
  2588 ;; Data sizes:     COMRAM   BANK0   BANK1   BANK2   BANK3   BANK4   BANK5   BANK6   BANK7
  2589 ;;      Params:         8       0       0       0       0       0       0       0       0
  2590 ;;      Locals:         4       0       0       0       0       0       0       0       0
  2591 ;;      Temps:          0       0       0       0       0       0       0       0       0
  2592 ;;      Totals:        12       0       0       0       0       0       0       0       0
  2593 ;;Total ram usage:       12 bytes
  2594 ;; Hardware stack levels used: 1
  2595 ;; This function calls:
  2596 ;;		Nothing
  2597 ;; This function is called by:
  2598 ;;		_Read_LM35_Temperature_X10
  2599 ;; This function uses a non-reentrant model
  2600 ;;
  2601                           
  2602                           	psect	text8
  2603   00775A                     __ptext8:
  2604                           	callstack 0
  2605   00775A                     ___lmul:
  2606                           	callstack 29
  2607   00775A  0E00               	movlw	0
  2608   00775C  6E09               	movwf	___lmul@product^0,c
  2609   00775E  0E00               	movlw	0
  2610   007760  6E0A               	movwf	(___lmul@product+1)^0,c
  2611   007762  0E00               	movlw	0
  2612   007764  6E0B               	movwf	(___lmul@product+2)^0,c
  2613   007766  0E00               	movlw	0
  2614   007768  6E0C               	movwf	(___lmul@product+3)^0,c
  2615   00776A                     l1725:
  2616   00776A  A001               	btfss	___lmul@multiplier^0,0,c
  2617   00776C  EFBA  F03B         	goto	u701
  2618   007770  EFBC  F03B         	goto	u700
  2619   007774                     u701:
  2620   007774  EFC4  F03B         	goto	l1729
  2621   007778                     u700:
  2622   007778  5005               	movf	___lmul@multiplicand^0,w,c
  2623   00777A  2609               	addwf	___lmul@product^0,f,c
  2624   00777C  5006               	movf	(___lmul@multiplicand+1)^0,w,c
  2625   00777E  220A               	addwfc	(___lmul@product+1)^0,f,c
  2626   007780  5007               	movf	(___lmul@multiplicand+2)^0,w,c
  2627   007782  220B               	addwfc	(___lmul@product+2)^0,f,c
  2628   007784  5008               	movf	(___lmul@multiplicand+3)^0,w,c
  2629   007786  220C               	addwfc	(___lmul@product+3)^0,f,c
  2630   007788                     l1729:
  2631   007788  90D8               	bcf	status,0,c
  2632   00778A  3605               	rlcf	___lmul@multiplicand^0,f,c
  2633   00778C  3606               	rlcf	(___lmul@multiplicand+1)^0,f,c
  2634   00778E  3607               	rlcf	(___lmul@multiplicand+2)^0,f,c
  2635   007790  3608               	rlcf	(___lmul@multiplicand+3)^0,f,c
  2636   007792  90D8               	bcf	status,0,c
  2637   007794  3204               	rrcf	(___lmul@multiplier+3)^0,f,c
  2638   007796  3203               	rrcf	(___lmul@multiplier+2)^0,f,c
  2639   007798  3202               	rrcf	(___lmul@multiplier+1)^0,f,c
  2640   00779A  3201               	rrcf	___lmul@multiplier^0,f,c
  2641   00779C  5001               	movf	___lmul@multiplier^0,w,c
  2642   00779E  1002               	iorwf	(___lmul@multiplier+1)^0,w,c
  2643   0077A0  1003               	iorwf	(___lmul@multiplier+2)^0,w,c
  2644   0077A2  1004               	iorwf	(___lmul@multiplier+3)^0,w,c
  2645   0077A4  A4D8               	btfss	status,2,c
  2646   0077A6  EFD7  F03B         	goto	u711
  2647   0077AA  EFD9  F03B         	goto	u710
  2648   0077AE                     u711:
  2649   0077AE  EFB5  F03B         	goto	l1725
  2650   0077B2                     u710:
  2651   0077B2  C009  F001         	movff	___lmul@product,?___lmul
  2652   0077B6  C00A  F002         	movff	___lmul@product+1,?___lmul+1
  2653   0077BA  C00B  F003         	movff	___lmul@product+2,?___lmul+2
  2654   0077BE  C00C  F004         	movff	___lmul@product+3,?___lmul+3
  2655   0077C2  0012               	return		;funcret
  2656   0077C4                     __end_of___lmul:
  2657                           	callstack 0
  2658                           
  2659 ;; *************** function ___lldiv *****************
  2660 ;; Defined at:
  2661 ;;		line 7 in file "C:\Program Files\Microchip\xc8\v3.10\pic\sources\c99\common\__lldiv.c"
  2662 ;; Parameters:    Size  Location     Type
  2663 ;;  dividend        4   12[COMRAM] unsigned long 
  2664 ;;  divisor         4   16[COMRAM] unsigned long 
  2665 ;; Auto vars:     Size  Location     Type
  2666 ;;  quotient        4   20[COMRAM] unsigned long 
  2667 ;;  counter         1   24[COMRAM] unsigned char 
  2668 ;; Return value:  Size  Location     Type
  2669 ;;                  4   12[COMRAM] unsigned long 
  2670 ;; Registers used:
  2671 ;;		wreg, status,2, status,0
  2672 ;; Tracked objects:
  2673 ;;		On entry : 0/0
  2674 ;;		On exit  : 0/0
  2675 ;;		Unchanged: 0/0
  2676 ;; Data sizes:     COMRAM   BANK0   BANK1   BANK2   BANK3   BANK4   BANK5   BANK6   BANK7
  2677 ;;      Params:         8       0       0       0       0       0       0       0       0
  2678 ;;      Locals:         5       0       0       0       0       0       0       0       0
  2679 ;;      Temps:          0       0       0       0       0       0       0       0       0
  2680 ;;      Totals:        13       0       0       0       0       0       0       0       0
  2681 ;;Total ram usage:       13 bytes
  2682 ;; Hardware stack levels used: 1
  2683 ;; This function calls:
  2684 ;;		Nothing
  2685 ;; This function is called by:
  2686 ;;		_Read_LM35_Temperature_X10
  2687 ;; This function uses a non-reentrant model
  2688 ;;
  2689                           
  2690                           	psect	text9
  2691   007944                     __ptext9:
  2692                           	callstack 0
  2693   007944                     ___lldiv:
  2694                           	callstack 29
  2695   007944  0E00               	movlw	0
  2696   007946  6E15               	movwf	___lldiv@quotient^0,c
  2697   007948  0E00               	movlw	0
  2698   00794A  6E16               	movwf	(___lldiv@quotient+1)^0,c
  2699   00794C  0E00               	movlw	0
  2700   00794E  6E17               	movwf	(___lldiv@quotient+2)^0,c
  2701   007950  0E00               	movlw	0
  2702   007952  6E18               	movwf	(___lldiv@quotient+3)^0,c
  2703   007954  5011               	movf	___lldiv@divisor^0,w,c
  2704   007956  1012               	iorwf	(___lldiv@divisor+1)^0,w,c
  2705   007958  1013               	iorwf	(___lldiv@divisor+2)^0,w,c
  2706   00795A  1014               	iorwf	(___lldiv@divisor+3)^0,w,c
  2707   00795C  B4D8               	btfsc	status,2,c
  2708   00795E  EFB3  F03C         	goto	u721
  2709   007962  EFB5  F03C         	goto	u720
  2710   007966                     u721:
  2711   007966  EFEB  F03C         	goto	l255
  2712   00796A                     u720:
  2713   00796A  0E01               	movlw	1
  2714   00796C  6E19               	movwf	___lldiv@counter^0,c
  2715   00796E  EFBF  F03C         	goto	l1741
  2716   007972                     l1739:
  2717   007972  90D8               	bcf	status,0,c
  2718   007974  3611               	rlcf	___lldiv@divisor^0,f,c
  2719   007976  3612               	rlcf	(___lldiv@divisor+1)^0,f,c
  2720   007978  3613               	rlcf	(___lldiv@divisor+2)^0,f,c
  2721   00797A  3614               	rlcf	(___lldiv@divisor+3)^0,f,c
  2722   00797C  2A19               	incf	___lldiv@counter^0,f,c
  2723   00797E                     l1741:
  2724   00797E  AE14               	btfss	(___lldiv@divisor+3)^0,7,c
  2725   007980  EFC4  F03C         	goto	u731
  2726   007984  EFC6  F03C         	goto	u730
  2727   007988                     u731:
  2728   007988  EFB9  F03C         	goto	l1739
  2729   00798C                     u730:
  2730   00798C                     l1743:
  2731   00798C  90D8               	bcf	status,0,c
  2732   00798E  3615               	rlcf	___lldiv@quotient^0,f,c
  2733   007990  3616               	rlcf	(___lldiv@quotient+1)^0,f,c
  2734   007992  3617               	rlcf	(___lldiv@quotient+2)^0,f,c
  2735   007994  3618               	rlcf	(___lldiv@quotient+3)^0,f,c
  2736   007996  5011               	movf	___lldiv@divisor^0,w,c
  2737   007998  5C0D               	subwf	___lldiv@dividend^0,w,c
  2738   00799A  5012               	movf	(___lldiv@divisor+1)^0,w,c
  2739   00799C  580E               	subwfb	(___lldiv@dividend+1)^0,w,c
  2740   00799E  5013               	movf	(___lldiv@divisor+2)^0,w,c
  2741   0079A0  580F               	subwfb	(___lldiv@dividend+2)^0,w,c
  2742   0079A2  5014               	movf	(___lldiv@divisor+3)^0,w,c
  2743   0079A4  5810               	subwfb	(___lldiv@dividend+3)^0,w,c
  2744   0079A6  A0D8               	btfss	status,0,c
  2745   0079A8  EFD8  F03C         	goto	u741
  2746   0079AC  EFDA  F03C         	goto	u740
  2747   0079B0                     u741:
  2748   0079B0  EFE3  F03C         	goto	l1751
  2749   0079B4                     u740:
  2750   0079B4  5011               	movf	___lldiv@divisor^0,w,c
  2751   0079B6  5E0D               	subwf	___lldiv@dividend^0,f,c
  2752   0079B8  5012               	movf	(___lldiv@divisor+1)^0,w,c
  2753   0079BA  5A0E               	subwfb	(___lldiv@dividend+1)^0,f,c
  2754   0079BC  5013               	movf	(___lldiv@divisor+2)^0,w,c
  2755   0079BE  5A0F               	subwfb	(___lldiv@dividend+2)^0,f,c
  2756   0079C0  5014               	movf	(___lldiv@divisor+3)^0,w,c
  2757   0079C2  5A10               	subwfb	(___lldiv@dividend+3)^0,f,c
  2758   0079C4  8015               	bsf	___lldiv@quotient^0,0,c
  2759   0079C6                     l1751:
  2760   0079C6  90D8               	bcf	status,0,c
  2761   0079C8  3214               	rrcf	(___lldiv@divisor+3)^0,f,c
  2762   0079CA  3213               	rrcf	(___lldiv@divisor+2)^0,f,c
  2763   0079CC  3212               	rrcf	(___lldiv@divisor+1)^0,f,c
  2764   0079CE  3211               	rrcf	___lldiv@divisor^0,f,c
  2765   0079D0  2E19               	decfsz	___lldiv@counter^0,f,c
  2766   0079D2  EFC6  F03C         	goto	l1743
  2767   0079D6                     l255:
  2768   0079D6  C015  F00D         	movff	___lldiv@quotient,?___lldiv
  2769   0079DA  C016  F00E         	movff	___lldiv@quotient+1,?___lldiv+1
  2770   0079DE  C017  F00F         	movff	___lldiv@quotient+2,?___lldiv+2
  2771   0079E2  C018  F010         	movff	___lldiv@quotient+3,?___lldiv+3
  2772   0079E6  0012               	return		;funcret
  2773   0079E8                     __end_of___lldiv:
  2774                           	callstack 0
  2775                           
  2776 ;; *************** function _ADC_Read *****************
  2777 ;; Defined at:
  2778 ;;		line 49 in file "adc.c"
  2779 ;; Parameters:    Size  Location     Type
  2780 ;;  channel         1    wreg     unsigned char 
  2781 ;; Auto vars:     Size  Location     Type
  2782 ;;  channel         1    4[COMRAM] unsigned char 
  2783 ;; Return value:  Size  Location     Type
  2784 ;;                  2    0[COMRAM] unsigned short 
  2785 ;; Registers used:
  2786 ;;		wreg, status,2, status,0
  2787 ;; Tracked objects:
  2788 ;;		On entry : 0/0
  2789 ;;		On exit  : 0/0
  2790 ;;		Unchanged: 0/0
  2791 ;; Data sizes:     COMRAM   BANK0   BANK1   BANK2   BANK3   BANK4   BANK5   BANK6   BANK7
  2792 ;;      Params:         2       0       0       0       0       0       0       0       0
  2793 ;;      Locals:         1       0       0       0       0       0       0       0       0
  2794 ;;      Temps:          2       0       0       0       0       0       0       0       0
  2795 ;;      Totals:         5       0       0       0       0       0       0       0       0
  2796 ;;Total ram usage:        5 bytes
  2797 ;; Hardware stack levels used: 1
  2798 ;; This function calls:
  2799 ;;		Nothing
  2800 ;; This function is called by:
  2801 ;;		_main
  2802 ;;		_Read_LM35_Temperature_X10
  2803 ;; This function uses a non-reentrant model
  2804 ;;
  2805                           
  2806                           	psect	text10
  2807   007524                     __ptext10:
  2808                           	callstack 0
  2809   007524                     _ADC_Read:
  2810                           	callstack 29
  2811                           
  2812                           ;incstack = 0
  2813                           ;ADC_Read@channel stored from wreg
  2814   007524  6E05               	movwf	ADC_Read@channel^0,c
  2815   007526                     
  2816                           ;adc.c: 49: uint16_t ADC_Read(uint8_t channel);adc.c: 50: {;adc.c: 51:     if (channel >
      +                           13)
  2817   007526  0E0D               	movlw	13
  2818   007528  6405               	cpfsgt	ADC_Read@channel^0,c
  2819   00752A  EF99  F03A         	goto	u621
  2820   00752E  EF9B  F03A         	goto	u620
  2821   007532                     u621:
  2822   007532  EF9C  F03A         	goto	l1605
  2823   007536                     u620:
  2824   007536                     
  2825                           ;adc.c: 52:     {;adc.c: 53:         channel = 0;
  2826   007536  6A05               	clrf	ADC_Read@channel^0,c
  2827   007538                     l1605:
  2828                           
  2829                           ;adc.c: 60:     ADCON0 &= 0xC3;
  2830   007538  0EC3               	movlw	195
  2831   00753A  16C2               	andwf	194,f,c	;volatile
  2832                           
  2833                           ;adc.c: 61:     ADCON0 |= (uint8_t)(channel << 2);
  2834   00753C  4405               	rlncf	ADC_Read@channel^0,w,c
  2835   00753E  46E8               	rlncf	wreg,f,c
  2836   007540  0BFC               	andlw	252
  2837   007542  12C2               	iorwf	194,f,c	;volatile
  2838   007544                     
  2839                           ;adc.c: 67:     _delay((unsigned long)((30)*(8000000UL/4000000.0)));
  2840   007544  0E14               	movlw	20
  2841   007546                     u817:
  2842   007546  2EE8               	decfsz	wreg,f,c
  2843   007548  D7FE               	bra	u817
  2844   00754A                     
  2845                           ;adc.c: 73:     ADCON0bits.GO_DONE = 1;
  2846   00754A  82C2               	bsf	194,1,c	;volatile
  2847   00754C                     l68:
  2848   00754C  B2C2               	btfsc	194,1,c	;volatile
  2849   00754E  EFAB  F03A         	goto	u631
  2850   007552  EFAD  F03A         	goto	u630
  2851   007556                     u631:
  2852   007556  EFA6  F03A         	goto	l68
  2853   00755A                     u630:
  2854   00755A                     
  2855                           ;adc.c: 85:     return (((uint16_t)ADRESH << 8) | ADRESL);
  2856   00755A  50C4               	movf	196,w,c	;volatile
  2857   00755C  6E03               	movwf	??_ADC_Read^0,c
  2858   00755E  50C3               	movf	195,w,c	;volatile
  2859   007560  6E01               	movwf	?_ADC_Read^0,c
  2860   007562  C003  F002         	movff	??_ADC_Read,?_ADC_Read+1
  2861   007566  0012               	return		;funcret
  2862   007568                     __end_of_ADC_Read:
  2863                           	callstack 0
  2864                           
  2865 ;; *************** function _Process_Components *****************
  2866 ;; Defined at:
  2867 ;;		line 182 in file "main.c"
  2868 ;; Parameters:    Size  Location     Type
  2869 ;;  temperature_    2    0[COMRAM] unsigned short 
  2870 ;; Auto vars:     Size  Location     Type
  2871 ;;		None
  2872 ;; Return value:  Size  Location     Type
  2873 ;;                  1    wreg      void 
  2874 ;; Registers used:
  2875 ;;		wreg, status,2, status,0
  2876 ;; Tracked objects:
  2877 ;;		On entry : 0/0
  2878 ;;		On exit  : 0/0
  2879 ;;		Unchanged: 0/0
  2880 ;; Data sizes:     COMRAM   BANK0   BANK1   BANK2   BANK3   BANK4   BANK5   BANK6   BANK7
  2881 ;;      Params:         2       0       0       0       0       0       0       0       0
  2882 ;;      Locals:         0       0       0       0       0       0       0       0       0
  2883 ;;      Temps:          0       0       0       0       0       0       0       0       0
  2884 ;;      Totals:         2       0       0       0       0       0       0       0       0
  2885 ;;Total ram usage:        2 bytes
  2886 ;; Hardware stack levels used: 1
  2887 ;; This function calls:
  2888 ;;		Nothing
  2889 ;; This function is called by:
  2890 ;;		_main
  2891 ;; This function uses a non-reentrant model
  2892 ;;
  2893                           
  2894                           	psect	text11
  2895   0074B2                     __ptext11:
  2896                           	callstack 0
  2897   0074B2                     _Process_Components:
  2898                           	callstack 30
  2899   0074B2                     
  2900                           ;main.c: 182: static void Process_Components(uint16_t temperature_x10);main.c: 183: {;ma
      +                          in.c: 192:     if (temperature_x10 >= 300u)
  2901   0074B2  0E2C               	movlw	44
  2902   0074B4  5C01               	subwf	Process_Components@temperature_x10^0,w,c
  2903   0074B6  0E01               	movlw	1
  2904   0074B8  5802               	subwfb	(Process_Components@temperature_x10+1)^0,w,c
  2905   0074BA  A0D8               	btfss	status,0,c
  2906   0074BC  EF62  F03A         	goto	u751
  2907   0074C0  EF64  F03A         	goto	u750
  2908   0074C4                     u751:
  2909   0074C4  EF67  F03A         	goto	l202
  2910   0074C8                     u750:
  2911   0074C8                     
  2912                           ;main.c: 193:     {;main.c: 194:         LATDbits.LATD0 = 1;
  2913   0074C8  808C               	bsf	140,0,c	;volatile
  2914                           
  2915                           ;main.c: 195:     }
  2916   0074CA  EF68  F03A         	goto	l204
  2917   0074CE                     l202:
  2918                           
  2919                           ;main.c: 197:     {;main.c: 198:         LATDbits.LATD0 = 0;
  2920   0074CE  908C               	bcf	140,0,c	;volatile
  2921   0074D0                     l204:
  2922   0074D0  0012               	return		;funcret
  2923   0074D2                     __end_of_Process_Components:
  2924                           	callstack 0
  2925                           
  2926 ;; *************** function _Display_Update *****************
  2927 ;; Defined at:
  2928 ;;		line 202 in file "main.c"
  2929 ;; Parameters:    Size  Location     Type
  2930 ;;  adc_value       2   32[COMRAM] unsigned short 
  2931 ;;  temperature_    2   34[COMRAM] unsigned short 
  2932 ;; Auto vars:     Size  Location     Type
  2933 ;;  temp_text       8   36[COMRAM] unsigned char [8]
  2934 ;;  adc_text        6   44[COMRAM] unsigned char [6]
  2935 ;; Return value:  Size  Location     Type
  2936 ;;                  1    wreg      void 
  2937 ;; Registers used:
  2938 ;;		wreg, fsr1l, fsr1h, fsr2l, fsr2h, status,2, status,0, tblptrl, tblptrh, tblptru, prodl, prodh, cstack
  2939 ;; Tracked objects:
  2940 ;;		On entry : 0/0
  2941 ;;		On exit  : 0/0
  2942 ;;		Unchanged: 0/0
  2943 ;; Data sizes:     COMRAM   BANK0   BANK1   BANK2   BANK3   BANK4   BANK5   BANK6   BANK7
  2944 ;;      Params:         4       0       0       0       0       0       0       0       0
  2945 ;;      Locals:        14       0       0       0       0       0       0       0       0
  2946 ;;      Temps:          0       0       0       0       0       0       0       0       0
  2947 ;;      Totals:        18       0       0       0       0       0       0       0       0
  2948 ;;Total ram usage:       18 bytes
  2949 ;; Hardware stack levels used: 1
  2950 ;; Hardware stack levels required when called: 5
  2951 ;; This function calls:
  2952 ;;		_SSD1306_ClearLine
  2953 ;;		_SSD1306_SetCursor
  2954 ;;		_SSD1306_WriteString
  2955 ;;		_Temperature_To_String
  2956 ;;		_UInt16_To_String
  2957 ;; This function is called by:
  2958 ;;		_main
  2959 ;; This function uses a non-reentrant model
  2960 ;;
  2961                           
  2962                           	psect	text12
  2963   007B44                     __ptext12:
  2964                           	callstack 0
  2965   007B44                     _Display_Update:
  2966                           	callstack 25
  2967   007B44                     
  2968                           ;main.c: 202: static void Display_Update(uint16_t adc_value, uint16_t temperature_x10);m
      +                          ain.c: 203: {;main.c: 204:     char adc_text[6];;main.c: 205:     char temp_text[8];;mai
      +                          n.c: 207:     UInt16_To_String(adc_value, adc_text);
  2969   007B44  C021  F008         	movff	Display_Update@adc_value,UInt16_To_String@value
  2970   007B48  C022  F009         	movff	Display_Update@adc_value+1,UInt16_To_String@value+1
  2971   007B4C  0E2D               	movlw	low Display_Update@adc_text
  2972   007B4E  6E0A               	movwf	UInt16_To_String@buffer^0,c
  2973   007B50  EC47  F03D         	call	_UInt16_To_String	;wreg free
  2974                           
  2975                           ;main.c: 208:     Temperature_To_String(temperature_x10, temp_text);
  2976   007B54  C023  F013         	movff	Display_Update@temperature_x10,Temperature_To_String@temperature_x10
  2977   007B58  C024  F014         	movff	Display_Update@temperature_x10+1,Temperature_To_String@temperature_x10+1
  2978   007B5C  0E25               	movlw	low Display_Update@temp_text
  2979   007B5E  6E15               	movwf	Temperature_To_String@buffer^0,c
  2980   007B60  EC51  F03C         	call	_Temperature_To_String	;wreg free
  2981   007B64                     
  2982                           ;main.c: 210:     SSD1306_ClearLine(3);
  2983   007B64  0E03               	movlw	3
  2984   007B66  EC25  F03B         	call	_SSD1306_ClearLine
  2985   007B6A                     
  2986                           ;main.c: 211:     SSD1306_SetCursor(0, 3);
  2987   007B6A  0E03               	movlw	3
  2988   007B6C  6E04               	movwf	SSD1306_SetCursor@page^0,c
  2989   007B6E  0E00               	movlw	0
  2990   007B70  ECD9  F03A         	call	_SSD1306_SetCursor
  2991   007B74                     
  2992                           ;main.c: 212:     SSD1306_WriteString("ADC: ");
  2993   007B74  0EF4               	movlw	low STR_4
  2994   007B76  6E0F               	movwf	SSD1306_WriteString@str^0,c
  2995   007B78  0E7F               	movlw	high STR_4
  2996   007B7A  6E10               	movwf	(SSD1306_WriteString@str+1)^0,c
  2997   007B7C  EC4C  F03B         	call	_SSD1306_WriteString	;wreg free
  2998   007B80                     
  2999                           ;main.c: 213:     SSD1306_WriteString(adc_text);
  3000   007B80  0E2D               	movlw	low Display_Update@adc_text
  3001   007B82  6E0F               	movwf	SSD1306_WriteString@str^0,c
  3002   007B84  6A10               	clrf	(SSD1306_WriteString@str+1)^0,c
  3003   007B86  EC4C  F03B         	call	_SSD1306_WriteString	;wreg free
  3004   007B8A                     
  3005                           ;main.c: 215:     SSD1306_ClearLine(4);
  3006   007B8A  0E04               	movlw	4
  3007   007B8C  EC25  F03B         	call	_SSD1306_ClearLine
  3008   007B90                     
  3009                           ;main.c: 216:     SSD1306_SetCursor(0, 4);
  3010   007B90  0E04               	movlw	4
  3011   007B92  6E04               	movwf	SSD1306_SetCursor@page^0,c
  3012   007B94  0E00               	movlw	0
  3013   007B96  ECD9  F03A         	call	_SSD1306_SetCursor
  3014   007B9A                     
  3015                           ;main.c: 217:     SSD1306_WriteString("TEMP: ");
  3016   007B9A  0EED               	movlw	low STR_5
  3017   007B9C  6E0F               	movwf	SSD1306_WriteString@str^0,c
  3018   007B9E  0E7F               	movlw	high STR_5
  3019   007BA0  6E10               	movwf	(SSD1306_WriteString@str+1)^0,c
  3020   007BA2  EC4C  F03B         	call	_SSD1306_WriteString	;wreg free
  3021   007BA6                     
  3022                           ;main.c: 218:     SSD1306_WriteString(temp_text);
  3023   007BA6  0E25               	movlw	low Display_Update@temp_text
  3024   007BA8  6E0F               	movwf	SSD1306_WriteString@str^0,c
  3025   007BAA  6A10               	clrf	(SSD1306_WriteString@str+1)^0,c
  3026   007BAC  EC4C  F03B         	call	_SSD1306_WriteString	;wreg free
  3027   007BB0                     
  3028                           ;main.c: 219:     SSD1306_WriteString(" C");
  3029   007BB0  0EC1               	movlw	low (STR_3+12)
  3030   007BB2  6E0F               	movwf	SSD1306_WriteString@str^0,c
  3031   007BB4  0E7F               	movlw	high (STR_3+12)
  3032   007BB6  6E10               	movwf	(SSD1306_WriteString@str+1)^0,c
  3033   007BB8  EC4C  F03B         	call	_SSD1306_WriteString	;wreg free
  3034   007BBC                     
  3035                           ;main.c: 221:     SSD1306_ClearLine(5);
  3036   007BBC  0E05               	movlw	5
  3037   007BBE  EC25  F03B         	call	_SSD1306_ClearLine
  3038   007BC2                     
  3039                           ;main.c: 222:     SSD1306_SetCursor(0, 5);
  3040   007BC2  0E05               	movlw	5
  3041   007BC4  6E04               	movwf	SSD1306_SetCursor@page^0,c
  3042   007BC6  0E00               	movlw	0
  3043   007BC8  ECD9  F03A         	call	_SSD1306_SetCursor
  3044   007BCC                     
  3045                           ;main.c: 224:     if (temperature_x10 >= 300u)
  3046   007BCC  0E2C               	movlw	44
  3047   007BCE  5C23               	subwf	Display_Update@temperature_x10^0,w,c
  3048   007BD0  0E01               	movlw	1
  3049   007BD2  5824               	subwfb	(Display_Update@temperature_x10+1)^0,w,c
  3050   007BD4  A0D8               	btfss	status,0,c
  3051   007BD6  EFEF  F03D         	goto	u761
  3052   007BDA  EFF1  F03D         	goto	u760
  3053   007BDE                     u761:
  3054   007BDE  EFF9  F03D         	goto	l1807
  3055   007BE2                     u760:
  3056   007BE2                     
  3057                           ;main.c: 225:     {;main.c: 226:         SSD1306_WriteString("LED: ON ");
  3058   007BE2  0EDB               	movlw	low STR_7
  3059   007BE4  6E0F               	movwf	SSD1306_WriteString@str^0,c
  3060   007BE6  0E7F               	movlw	high STR_7
  3061   007BE8  6E10               	movwf	(SSD1306_WriteString@str+1)^0,c
  3062   007BEA  EC4C  F03B         	call	_SSD1306_WriteString	;wreg free
  3063                           
  3064                           ;main.c: 227:     }
  3065   007BEE  EFFF  F03D         	goto	l209
  3066   007BF2                     l1807:
  3067                           
  3068                           ;main.c: 229:     {;main.c: 230:         SSD1306_WriteString("LED: OFF");
  3069   007BF2  0EE4               	movlw	low STR_8
  3070   007BF4  6E0F               	movwf	SSD1306_WriteString@str^0,c
  3071   007BF6  0E7F               	movlw	high STR_8
  3072   007BF8  6E10               	movwf	(SSD1306_WriteString@str+1)^0,c
  3073   007BFA  EC4C  F03B         	call	_SSD1306_WriteString	;wreg free
  3074   007BFE                     l209:
  3075   007BFE  0012               	return		;funcret
  3076   007C00                     __end_of_Display_Update:
  3077                           	callstack 0
  3078                           
  3079 ;; *************** function _Temperature_To_String *****************
  3080 ;; Defined at:
  3081 ;;		line 264 in file "main.c"
  3082 ;; Parameters:    Size  Location     Type
  3083 ;;  temperature_    2   18[COMRAM] unsigned short 
  3084 ;;  buffer          1   20[COMRAM] PTR unsigned char 
  3085 ;;		 -> Display_Update@temp_text(8), 
  3086 ;; Auto vars:     Size  Location     Type
  3087 ;;  integer_text    6   21[COMRAM] unsigned char [6]
  3088 ;;  decimal_part    2   29[COMRAM] unsigned short 
  3089 ;;  integer_part    2   27[COMRAM] unsigned short 
  3090 ;;  i               1   31[COMRAM] unsigned char 
  3091 ;; Return value:  Size  Location     Type
  3092 ;;                  1    wreg      void 
  3093 ;; Registers used:
  3094 ;;		wreg, fsr1l, fsr1h, fsr2l, fsr2h, status,2, status,0, cstack
  3095 ;; Tracked objects:
  3096 ;;		On entry : 0/0
  3097 ;;		On exit  : 0/0
  3098 ;;		Unchanged: 0/0
  3099 ;; Data sizes:     COMRAM   BANK0   BANK1   BANK2   BANK3   BANK4   BANK5   BANK6   BANK7
  3100 ;;      Params:         3       0       0       0       0       0       0       0       0
  3101 ;;      Locals:        11       0       0       0       0       0       0       0       0
  3102 ;;      Temps:          0       0       0       0       0       0       0       0       0
  3103 ;;      Totals:        14       0       0       0       0       0       0       0       0
  3104 ;;Total ram usage:       14 bytes
  3105 ;; Hardware stack levels used: 1
  3106 ;; Hardware stack levels required when called: 2
  3107 ;; This function calls:
  3108 ;;		_UInt16_To_String
  3109 ;;		___lwdiv
  3110 ;;		___lwmod
  3111 ;; This function is called by:
  3112 ;;		_Display_Update
  3113 ;; This function uses a non-reentrant model
  3114 ;;
  3115                           
  3116                           	psect	text13
  3117   0078A2                     __ptext13:
  3118                           	callstack 0
  3119   0078A2                     _Temperature_To_String:
  3120                           	callstack 27
  3121   0078A2                     
  3122                           ;main.c: 264: static void Temperature_To_String(uint16_t temperature_x10, char *buffer);
      +                          main.c: 265: {;main.c: 266:     uint16_t integer_part;;main.c: 267:     uint16_t decimal
      +                          _part;;main.c: 268:     char integer_text[6];;main.c: 269:     uint8_t i = 0;
  3123   0078A2  6A20               	clrf	Temperature_To_String@i^0,c
  3124   0078A4                     
  3125                           ;main.c: 271:     integer_part = temperature_x10 / 10;
  3126   0078A4  C013  F001         	movff	Temperature_To_String@temperature_x10,___lwdiv@dividend
  3127   0078A8  C014  F002         	movff	Temperature_To_String@temperature_x10+1,___lwdiv@dividend+1
  3128   0078AC  6A04               	clrf	(___lwdiv@divisor+1)^0,c
  3129   0078AE  0E0A               	movlw	10
  3130   0078B0  6E03               	movwf	___lwdiv@divisor^0,c
  3131   0078B2  EC18  F03C         	call	___lwdiv	;wreg free
  3132   0078B6  C001  F01C         	movff	?___lwdiv,Temperature_To_String@integer_part
  3133   0078BA  C002  F01D         	movff	?___lwdiv+1,Temperature_To_String@integer_part+1
  3134                           
  3135                           ;main.c: 272:     decimal_part = temperature_x10 % 10;
  3136   0078BE  C013  F001         	movff	Temperature_To_String@temperature_x10,___lwmod@dividend
  3137   0078C2  C014  F002         	movff	Temperature_To_String@temperature_x10+1,___lwmod@dividend+1
  3138   0078C6  6A04               	clrf	(___lwmod@divisor+1)^0,c
  3139   0078C8  0E0A               	movlw	10
  3140   0078CA  6E03               	movwf	___lwmod@divisor^0,c
  3141   0078CC  EC7B  F03B         	call	___lwmod	;wreg free
  3142   0078D0  C001  F01E         	movff	?___lwmod,Temperature_To_String@decimal_part
  3143   0078D4  C002  F01F         	movff	?___lwmod+1,Temperature_To_String@decimal_part+1
  3144   0078D8                     
  3145                           ;main.c: 274:     UInt16_To_String(integer_part, integer_text);
  3146   0078D8  C01C  F008         	movff	Temperature_To_String@integer_part,UInt16_To_String@value
  3147   0078DC  C01D  F009         	movff	Temperature_To_String@integer_part+1,UInt16_To_String@value+1
  3148   0078E0  0E16               	movlw	low Temperature_To_String@integer_text
  3149   0078E2  6E0A               	movwf	UInt16_To_String@buffer^0,c
  3150   0078E4  EC47  F03D         	call	_UInt16_To_String	;wreg free
  3151                           
  3152                           ;main.c: 276:     while (integer_text[i] != '\0')
  3153   0078E8  EF81  F03C         	goto	l1713
  3154   0078EC                     l1709:
  3155                           
  3156                           ;main.c: 277:     {;main.c: 278:         buffer[i] = integer_text[i];
  3157   0078EC  5020               	movf	Temperature_To_String@i^0,w,c
  3158   0078EE  0F16               	addlw	low Temperature_To_String@integer_text
  3159   0078F0  6ED9               	movwf	fsr2l,c
  3160   0078F2  6ADA               	clrf	fsr2h,c
  3161   0078F4  5015               	movf	Temperature_To_String@buffer^0,w,c
  3162   0078F6  2420               	addwf	Temperature_To_String@i^0,w,c
  3163   0078F8  6EE1               	movwf	fsr1l,c
  3164   0078FA  6AE2               	clrf	fsr1h,c
  3165   0078FC  CFDF FFE7          	movff	indf2,indf1
  3166   007900                     
  3167                           ;main.c: 279:         i++;
  3168   007900  2A20               	incf	Temperature_To_String@i^0,f,c
  3169   007902                     l1713:
  3170                           
  3171                           ;main.c: 276:     while (integer_text[i] != '\0')
  3172   007902  5020               	movf	Temperature_To_String@i^0,w,c
  3173   007904  0F16               	addlw	low Temperature_To_String@integer_text
  3174   007906  6ED9               	movwf	fsr2l,c
  3175   007908  6ADA               	clrf	fsr2h,c
  3176   00790A  50DF               	movf	indf2,w,c
  3177   00790C  A4D8               	btfss	status,2,c
  3178   00790E  EF8B  F03C         	goto	u691
  3179   007912  EF8D  F03C         	goto	u690
  3180   007916                     u691:
  3181   007916  EF76  F03C         	goto	l1709
  3182   00791A                     u690:
  3183   00791A                     
  3184                           ;main.c: 282:     buffer[i] = '.';
  3185   00791A  5015               	movf	Temperature_To_String@buffer^0,w,c
  3186   00791C  2420               	addwf	Temperature_To_String@i^0,w,c
  3187   00791E  6ED9               	movwf	fsr2l,c
  3188   007920  6ADA               	clrf	fsr2h,c
  3189   007922  0E2E               	movlw	46
  3190   007924  6EDF               	movwf	indf2,c
  3191   007926                     
  3192                           ;main.c: 283:     i++;
  3193   007926  2A20               	incf	Temperature_To_String@i^0,f,c
  3194   007928                     
  3195                           ;main.c: 285:     buffer[i] = (char)(decimal_part + '0');
  3196   007928  5015               	movf	Temperature_To_String@buffer^0,w,c
  3197   00792A  2420               	addwf	Temperature_To_String@i^0,w,c
  3198   00792C  6ED9               	movwf	fsr2l,c
  3199   00792E  6ADA               	clrf	fsr2h,c
  3200   007930  501E               	movf	Temperature_To_String@decimal_part^0,w,c
  3201   007932  0F30               	addlw	48
  3202   007934  6EDF               	movwf	indf2,c
  3203                           
  3204                           ;main.c: 286:     i++;
  3205   007936  2A20               	incf	Temperature_To_String@i^0,f,c
  3206   007938                     
  3207                           ;main.c: 288:     buffer[i] = '\0';
  3208   007938  5015               	movf	Temperature_To_String@buffer^0,w,c
  3209   00793A  2420               	addwf	Temperature_To_String@i^0,w,c
  3210   00793C  6ED9               	movwf	fsr2l,c
  3211   00793E  6ADA               	clrf	fsr2h,c
  3212   007940  6ADF               	clrf	indf2,c
  3213   007942  0012               	return		;funcret
  3214   007944                     __end_of_Temperature_To_String:
  3215                           	callstack 0
  3216                           
  3217 ;; *************** function _UInt16_To_String *****************
  3218 ;; Defined at:
  3219 ;;		line 234 in file "main.c"
  3220 ;; Parameters:    Size  Location     Type
  3221 ;;  value           2    7[COMRAM] unsigned short 
  3222 ;;  buffer          1    9[COMRAM] PTR unsigned char 
  3223 ;;		 -> Temperature_To_String@integer_text(6), Display_Update@adc_text(6), 
  3224 ;; Auto vars:     Size  Location     Type
  3225 ;;  temp            6   10[COMRAM] unsigned char [6]
  3226 ;;  i               1   17[COMRAM] unsigned char 
  3227 ;;  j               1   16[COMRAM] unsigned char 
  3228 ;; Return value:  Size  Location     Type
  3229 ;;                  1    wreg      void 
  3230 ;; Registers used:
  3231 ;;		wreg, fsr1l, fsr1h, fsr2l, fsr2h, status,2, status,0, cstack
  3232 ;; Tracked objects:
  3233 ;;		On entry : 0/0
  3234 ;;		On exit  : 0/0
  3235 ;;		Unchanged: 0/0
  3236 ;; Data sizes:     COMRAM   BANK0   BANK1   BANK2   BANK3   BANK4   BANK5   BANK6   BANK7
  3237 ;;      Params:         3       0       0       0       0       0       0       0       0
  3238 ;;      Locals:         8       0       0       0       0       0       0       0       0
  3239 ;;      Temps:          0       0       0       0       0       0       0       0       0
  3240 ;;      Totals:        11       0       0       0       0       0       0       0       0
  3241 ;;Total ram usage:       11 bytes
  3242 ;; Hardware stack levels used: 1
  3243 ;; This function calls:
  3244 ;;		___lwdiv
  3245 ;;		___lwmod
  3246 ;; This function is called by:
  3247 ;;		_Display_Update
  3248 ;;		_Temperature_To_String
  3249 ;; This function uses a non-reentrant model
  3250 ;;
  3251                           
  3252                           	psect	text14
  3253   007A8E                     __ptext14:
  3254                           	callstack 0
  3255   007A8E                     _UInt16_To_String:
  3256                           	callstack 28
  3257   007A8E                     
  3258                           ;main.c: 234: static void UInt16_To_String(uint16_t value, char *buffer);main.c: 235: {;
      +                          main.c: 236:     uint8_t i = 0;
  3259   007A8E  6A12               	clrf	UInt16_To_String@i^0,c
  3260                           
  3261                           ;main.c: 237:     uint8_t j = 0;
  3262   007A90  6A11               	clrf	UInt16_To_String@j^0,c
  3263   007A92                     
  3264                           ;main.c: 238:     char temp[6];;main.c: 240:     if (value == 0)
  3265   007A92  5008               	movf	UInt16_To_String@value^0,w,c
  3266   007A94  1009               	iorwf	(UInt16_To_String@value+1)^0,w,c
  3267   007A96  A4D8               	btfss	status,2,c
  3268   007A98  EF50  F03D         	goto	u591
  3269   007A9C  EF52  F03D         	goto	u590
  3270   007AA0                     u591:
  3271   007AA0  EF7D  F03D         	goto	l1581
  3272   007AA4                     u590:
  3273   007AA4                     
  3274                           ;main.c: 241:     {;main.c: 242:         buffer[0] = '0';
  3275   007AA4  500A               	movf	UInt16_To_String@buffer^0,w,c
  3276   007AA6  6ED9               	movwf	fsr2l,c
  3277   007AA8  6ADA               	clrf	fsr2h,c
  3278   007AAA  0E30               	movlw	48
  3279   007AAC  6EDF               	movwf	indf2,c
  3280   007AAE                     
  3281                           ;main.c: 243:         buffer[1] = '\0';
  3282   007AAE  500A               	movf	UInt16_To_String@buffer^0,w,c
  3283   007AB0  6ED9               	movwf	fsr2l,c
  3284   007AB2  6ADA               	clrf	fsr2h,c
  3285   007AB4  0E01               	movlw	1
  3286   007AB6  26D9               	addwf	fsr2l,f,c
  3287   007AB8  6ADF               	clrf	indf2,c
  3288   007ABA  EFA1  F03D         	goto	l213
  3289   007ABE                     l1575:
  3290                           
  3291                           ;main.c: 248:     {;main.c: 249:         temp[i] = (char)((value % 10) + '0');
  3292   007ABE  5012               	movf	UInt16_To_String@i^0,w,c
  3293   007AC0  0F0B               	addlw	low UInt16_To_String@temp
  3294   007AC2  6ED9               	movwf	fsr2l,c
  3295   007AC4  6ADA               	clrf	fsr2h,c
  3296   007AC6  C008  F001         	movff	UInt16_To_String@value,___lwmod@dividend
  3297   007ACA  C009  F002         	movff	UInt16_To_String@value+1,___lwmod@dividend+1
  3298   007ACE  6A04               	clrf	(___lwmod@divisor+1)^0,c
  3299   007AD0  0E0A               	movlw	10
  3300   007AD2  6E03               	movwf	___lwmod@divisor^0,c
  3301   007AD4  EC7B  F03B         	call	___lwmod	;wreg free
  3302   007AD8  5001               	movf	?___lwmod^0,w,c
  3303   007ADA  0F30               	addlw	48
  3304   007ADC  6EDF               	movwf	indf2,c
  3305   007ADE                     
  3306                           ;main.c: 250:         value = value / 10;
  3307   007ADE  C008  F001         	movff	UInt16_To_String@value,___lwdiv@dividend
  3308   007AE2  C009  F002         	movff	UInt16_To_String@value+1,___lwdiv@dividend+1
  3309   007AE6  6A04               	clrf	(___lwdiv@divisor+1)^0,c
  3310   007AE8  0E0A               	movlw	10
  3311   007AEA  6E03               	movwf	___lwdiv@divisor^0,c
  3312   007AEC  EC18  F03C         	call	___lwdiv	;wreg free
  3313   007AF0  C001  F008         	movff	?___lwdiv,UInt16_To_String@value
  3314   007AF4  C002  F009         	movff	?___lwdiv+1,UInt16_To_String@value+1
  3315   007AF8                     
  3316                           ;main.c: 251:         i++;
  3317   007AF8  2A12               	incf	UInt16_To_String@i^0,f,c
  3318   007AFA                     l1581:
  3319                           
  3320                           ;main.c: 247:     while (value > 0)
  3321   007AFA  5008               	movf	UInt16_To_String@value^0,w,c
  3322   007AFC  1009               	iorwf	(UInt16_To_String@value+1)^0,w,c
  3323   007AFE  A4D8               	btfss	status,2,c
  3324   007B00  EF84  F03D         	goto	u601
  3325   007B04  EF86  F03D         	goto	u600
  3326   007B08                     u601:
  3327   007B08  EF5F  F03D         	goto	l1575
  3328   007B0C                     u600:
  3329   007B0C  EF94  F03D         	goto	l1589
  3330   007B10                     l1583:
  3331                           
  3332                           ;main.c: 255:     {;main.c: 256:         i--;
  3333   007B10  0612               	decf	UInt16_To_String@i^0,f,c
  3334   007B12                     
  3335                           ;main.c: 257:         buffer[j] = temp[i];
  3336   007B12  5012               	movf	UInt16_To_String@i^0,w,c
  3337   007B14  0F0B               	addlw	low UInt16_To_String@temp
  3338   007B16  6ED9               	movwf	fsr2l,c
  3339   007B18  6ADA               	clrf	fsr2h,c
  3340   007B1A  500A               	movf	UInt16_To_String@buffer^0,w,c
  3341   007B1C  2411               	addwf	UInt16_To_String@j^0,w,c
  3342   007B1E  6EE1               	movwf	fsr1l,c
  3343   007B20  6AE2               	clrf	fsr1h,c
  3344   007B22  CFDF FFE7          	movff	indf2,indf1
  3345   007B26                     
  3346                           ;main.c: 258:         j++;
  3347   007B26  2A11               	incf	UInt16_To_String@j^0,f,c
  3348   007B28                     l1589:
  3349                           
  3350                           ;main.c: 254:     while (i > 0)
  3351   007B28  5012               	movf	UInt16_To_String@i^0,w,c
  3352   007B2A  A4D8               	btfss	status,2,c
  3353   007B2C  EF9A  F03D         	goto	u611
  3354   007B30  EF9C  F03D         	goto	u610
  3355   007B34                     u611:
  3356   007B34  EF88  F03D         	goto	l1583
  3357   007B38                     u610:
  3358   007B38                     
  3359                           ;main.c: 261:     buffer[j] = '\0';
  3360   007B38  500A               	movf	UInt16_To_String@buffer^0,w,c
  3361   007B3A  2411               	addwf	UInt16_To_String@j^0,w,c
  3362   007B3C  6ED9               	movwf	fsr2l,c
  3363   007B3E  6ADA               	clrf	fsr2h,c
  3364   007B40  6ADF               	clrf	indf2,c
  3365   007B42                     l213:
  3366   007B42  0012               	return		;funcret
  3367   007B44                     __end_of_UInt16_To_String:
  3368                           	callstack 0
  3369                           
  3370 ;; *************** function ___lwmod *****************
  3371 ;; Defined at:
  3372 ;;		line 7 in file "C:\Program Files\Microchip\xc8\v3.10\pic\sources\c99\common\lwmod.c"
  3373 ;; Parameters:    Size  Location     Type
  3374 ;;  dividend        2    0[COMRAM] unsigned int 
  3375 ;;  divisor         2    2[COMRAM] unsigned int 
  3376 ;; Auto vars:     Size  Location     Type
  3377 ;;  counter         1    4[COMRAM] unsigned char 
  3378 ;; Return value:  Size  Location     Type
  3379 ;;                  2    0[COMRAM] unsigned int 
  3380 ;; Registers used:
  3381 ;;		wreg, status,2, status,0
  3382 ;; Tracked objects:
  3383 ;;		On entry : 0/0
  3384 ;;		On exit  : 0/0
  3385 ;;		Unchanged: 0/0
  3386 ;; Data sizes:     COMRAM   BANK0   BANK1   BANK2   BANK3   BANK4   BANK5   BANK6   BANK7
  3387 ;;      Params:         4       0       0       0       0       0       0       0       0
  3388 ;;      Locals:         1       0       0       0       0       0       0       0       0
  3389 ;;      Temps:          0       0       0       0       0       0       0       0       0
  3390 ;;      Totals:         5       0       0       0       0       0       0       0       0
  3391 ;;Total ram usage:        5 bytes
  3392 ;; Hardware stack levels used: 1
  3393 ;; This function calls:
  3394 ;;		Nothing
  3395 ;; This function is called by:
  3396 ;;		_UInt16_To_String
  3397 ;;		_Temperature_To_String
  3398 ;; This function uses a non-reentrant model
  3399 ;;
  3400                           
  3401                           	psect	text15
  3402   0076F6                     __ptext15:
  3403                           	callstack 0
  3404   0076F6                     ___lwmod:
  3405                           	callstack 27
  3406   0076F6  5003               	movf	___lwmod@divisor^0,w,c
  3407   0076F8  1004               	iorwf	(___lwmod@divisor+1)^0,w,c
  3408   0076FA  B4D8               	btfsc	status,2,c
  3409   0076FC  EF82  F03B         	goto	u471
  3410   007700  EF84  F03B         	goto	u470
  3411   007704                     u471:
  3412   007704  EFA8  F03B         	goto	l839
  3413   007708                     u470:
  3414   007708  0E01               	movlw	1
  3415   00770A  6E05               	movwf	___lwmod@counter^0,c
  3416   00770C  EF8C  F03B         	goto	l1479
  3417   007710                     l1477:
  3418   007710  90D8               	bcf	status,0,c
  3419   007712  3603               	rlcf	___lwmod@divisor^0,f,c
  3420   007714  3604               	rlcf	(___lwmod@divisor+1)^0,f,c
  3421   007716  2A05               	incf	___lwmod@counter^0,f,c
  3422   007718                     l1479:
  3423   007718  AE04               	btfss	(___lwmod@divisor+1)^0,7,c
  3424   00771A  EF91  F03B         	goto	u481
  3425   00771E  EF93  F03B         	goto	u480
  3426   007722                     u481:
  3427   007722  EF88  F03B         	goto	l1477
  3428   007726                     u480:
  3429   007726                     l1481:
  3430   007726  5003               	movf	___lwmod@divisor^0,w,c
  3431   007728  5C01               	subwf	___lwmod@dividend^0,w,c
  3432   00772A  5004               	movf	(___lwmod@divisor+1)^0,w,c
  3433   00772C  5802               	subwfb	(___lwmod@dividend+1)^0,w,c
  3434   00772E  A0D8               	btfss	status,0,c
  3435   007730  EF9C  F03B         	goto	u491
  3436   007734  EF9E  F03B         	goto	u490
  3437   007738                     u491:
  3438   007738  EFA2  F03B         	goto	l1485
  3439   00773C                     u490:
  3440   00773C  5003               	movf	___lwmod@divisor^0,w,c
  3441   00773E  5E01               	subwf	___lwmod@dividend^0,f,c
  3442   007740  5004               	movf	(___lwmod@divisor+1)^0,w,c
  3443   007742  5A02               	subwfb	(___lwmod@dividend+1)^0,f,c
  3444   007744                     l1485:
  3445   007744  90D8               	bcf	status,0,c
  3446   007746  3204               	rrcf	(___lwmod@divisor+1)^0,f,c
  3447   007748  3203               	rrcf	___lwmod@divisor^0,f,c
  3448   00774A  2E05               	decfsz	___lwmod@counter^0,f,c
  3449   00774C  EF93  F03B         	goto	l1481
  3450   007750                     l839:
  3451   007750  C001  F001         	movff	___lwmod@dividend,?___lwmod
  3452   007754  C002  F002         	movff	___lwmod@dividend+1,?___lwmod+1
  3453   007758  0012               	return		;funcret
  3454   00775A                     __end_of___lwmod:
  3455                           	callstack 0
  3456                           
  3457 ;; *************** function ___lwdiv *****************
  3458 ;; Defined at:
  3459 ;;		line 7 in file "C:\Program Files\Microchip\xc8\v3.10\pic\sources\c99\common\lwdiv.c"
  3460 ;; Parameters:    Size  Location     Type
  3461 ;;  dividend        2    0[COMRAM] unsigned int 
  3462 ;;  divisor         2    2[COMRAM] unsigned int 
  3463 ;; Auto vars:     Size  Location     Type
  3464 ;;  quotient        2    4[COMRAM] unsigned int 
  3465 ;;  counter         1    6[COMRAM] unsigned char 
  3466 ;; Return value:  Size  Location     Type
  3467 ;;                  2    0[COMRAM] unsigned int 
  3468 ;; Registers used:
  3469 ;;		wreg, status,2, status,0
  3470 ;; Tracked objects:
  3471 ;;		On entry : 0/0
  3472 ;;		On exit  : 0/0
  3473 ;;		Unchanged: 0/0
  3474 ;; Data sizes:     COMRAM   BANK0   BANK1   BANK2   BANK3   BANK4   BANK5   BANK6   BANK7
  3475 ;;      Params:         4       0       0       0       0       0       0       0       0
  3476 ;;      Locals:         3       0       0       0       0       0       0       0       0
  3477 ;;      Temps:          0       0       0       0       0       0       0       0       0
  3478 ;;      Totals:         7       0       0       0       0       0       0       0       0
  3479 ;;Total ram usage:        7 bytes
  3480 ;; Hardware stack levels used: 1
  3481 ;; This function calls:
  3482 ;;		Nothing
  3483 ;; This function is called by:
  3484 ;;		_UInt16_To_String
  3485 ;;		_Temperature_To_String
  3486 ;; This function uses a non-reentrant model
  3487 ;;
  3488                           
  3489                           	psect	text16
  3490   007830                     __ptext16:
  3491                           	callstack 0
  3492   007830                     ___lwdiv:
  3493                           	callstack 27
  3494   007830  6A06               	clrf	(___lwdiv@quotient+1)^0,c
  3495   007832  0E00               	movlw	0
  3496   007834  6E05               	movwf	___lwdiv@quotient^0,c
  3497   007836  5003               	movf	___lwdiv@divisor^0,w,c
  3498   007838  1004               	iorwf	(___lwdiv@divisor+1)^0,w,c
  3499   00783A  B4D8               	btfsc	status,2,c
  3500   00783C  EF22  F03C         	goto	u441
  3501   007840  EF24  F03C         	goto	u440
  3502   007844                     u441:
  3503   007844  EF4C  F03C         	goto	l829
  3504   007848                     u440:
  3505   007848  0E01               	movlw	1
  3506   00784A  6E07               	movwf	___lwdiv@counter^0,c
  3507   00784C  EF2C  F03C         	goto	l1459
  3508   007850                     l1457:
  3509   007850  90D8               	bcf	status,0,c
  3510   007852  3603               	rlcf	___lwdiv@divisor^0,f,c
  3511   007854  3604               	rlcf	(___lwdiv@divisor+1)^0,f,c
  3512   007856  2A07               	incf	___lwdiv@counter^0,f,c
  3513   007858                     l1459:
  3514   007858  AE04               	btfss	(___lwdiv@divisor+1)^0,7,c
  3515   00785A  EF31  F03C         	goto	u451
  3516   00785E  EF33  F03C         	goto	u450
  3517   007862                     u451:
  3518   007862  EF28  F03C         	goto	l1457
  3519   007866                     u450:
  3520   007866                     l1461:
  3521   007866  90D8               	bcf	status,0,c
  3522   007868  3605               	rlcf	___lwdiv@quotient^0,f,c
  3523   00786A  3606               	rlcf	(___lwdiv@quotient+1)^0,f,c
  3524   00786C  5003               	movf	___lwdiv@divisor^0,w,c
  3525   00786E  5C01               	subwf	___lwdiv@dividend^0,w,c
  3526   007870  5004               	movf	(___lwdiv@divisor+1)^0,w,c
  3527   007872  5802               	subwfb	(___lwdiv@dividend+1)^0,w,c
  3528   007874  A0D8               	btfss	status,0,c
  3529   007876  EF3F  F03C         	goto	u461
  3530   00787A  EF41  F03C         	goto	u460
  3531   00787E                     u461:
  3532   00787E  EF46  F03C         	goto	l1469
  3533   007882                     u460:
  3534   007882  5003               	movf	___lwdiv@divisor^0,w,c
  3535   007884  5E01               	subwf	___lwdiv@dividend^0,f,c
  3536   007886  5004               	movf	(___lwdiv@divisor+1)^0,w,c
  3537   007888  5A02               	subwfb	(___lwdiv@dividend+1)^0,f,c
  3538   00788A  8005               	bsf	___lwdiv@quotient^0,0,c
  3539   00788C                     l1469:
  3540   00788C  90D8               	bcf	status,0,c
  3541   00788E  3204               	rrcf	(___lwdiv@divisor+1)^0,f,c
  3542   007890  3203               	rrcf	___lwdiv@divisor^0,f,c
  3543   007892  2E07               	decfsz	___lwdiv@counter^0,f,c
  3544   007894  EF33  F03C         	goto	l1461
  3545   007898                     l829:
  3546   007898  C005  F001         	movff	___lwdiv@quotient,?___lwdiv
  3547   00789C  C006  F002         	movff	___lwdiv@quotient+1,?___lwdiv+1
  3548   0078A0  0012               	return		;funcret
  3549   0078A2                     __end_of___lwdiv:
  3550                           	callstack 0
  3551                           
  3552 ;; *************** function _SSD1306_WriteString *****************
  3553 ;; Defined at:
  3554 ;;		line 264 in file "ssd1306.c"
  3555 ;; Parameters:    Size  Location     Type
  3556 ;;  str             2   14[COMRAM] PTR const unsigned char 
  3557 ;;		 -> STR_8(9), STR_7(9), STR_6(3), STR_5(7), 
  3558 ;;		 -> STR_4(6), Display_Update@temp_text(8), Display_Update@adc_text(6), STR_3(15), 
  3559 ;;		 -> STR_2(11), STR_1(12), 
  3560 ;; Auto vars:     Size  Location     Type
  3561 ;;		None
  3562 ;; Return value:  Size  Location     Type
  3563 ;;                  1    wreg      void 
  3564 ;; Registers used:
  3565 ;;		wreg, fsr1l, fsr1h, status,2, status,0, tblptrl, tblptrh, tblptru, prodl, prodh, cstack
  3566 ;; Tracked objects:
  3567 ;;		On entry : 0/0
  3568 ;;		On exit  : 0/0
  3569 ;;		Unchanged: 0/0
  3570 ;; Data sizes:     COMRAM   BANK0   BANK1   BANK2   BANK3   BANK4   BANK5   BANK6   BANK7
  3571 ;;      Params:         2       0       0       0       0       0       0       0       0
  3572 ;;      Locals:         0       0       0       0       0       0       0       0       0
  3573 ;;      Temps:          0       0       0       0       0       0       0       0       0
  3574 ;;      Totals:         2       0       0       0       0       0       0       0       0
  3575 ;;Total ram usage:        2 bytes
  3576 ;; Hardware stack levels used: 1
  3577 ;; This function calls:
  3578 ;;		_SSD1306_WriteChar
  3579 ;; This function is called by:
  3580 ;;		_main
  3581 ;;		_Display_Update
  3582 ;; This function uses a non-reentrant model
  3583 ;;
  3584                           
  3585                           	psect	text17
  3586   007698                     __ptext17:
  3587                           	callstack 0
  3588   007698                     _SSD1306_WriteString:
  3589                           	callstack 29
  3590   007698                     
  3591                           ;ssd1306.c: 264: void SSD1306_WriteString(const char *str);ssd1306.c: 265: {;ssd1306.c: 
      +                          266:     while (*str)
  3592   007698  EF62  F03B         	goto	l1641
  3593   00769C                     l1637:
  3594                           
  3595                           ;ssd1306.c: 267:     {;ssd1306.c: 268:         SSD1306_WriteChar(*str);
  3596   00769C  C00F  FFF6         	movff	SSD1306_WriteString@str,tblptrl
  3597   0076A0  C010  FFF7         	movff	SSD1306_WriteString@str+1,tblptrh
  3598   0076A4  6AF8               	clrf	tblptru,c
  3599   0076A6  0E07               	movlw	(high __ramtop+-1)
  3600   0076A8  64F7               	cpfsgt	tblptrh,c
  3601   0076AA  D003               	bra	u667
  3602   0076AC  0008               	tblrd		*
  3603   0076AE  50F5               	movf	tablat,w,c
  3604   0076B0  D005               	bra	u660
  3605   0076B2                     u667:
  3606   0076B2  CFF6 FFE1          	movff	tblptrl,fsr1l
  3607   0076B6  CFF7 FFE2          	movff	tblptrh,fsr1h
  3608   0076BA  50E7               	movf	indf1,w,c
  3609   0076BC                     u660:
  3610   0076BC  EC63  F03E         	call	_SSD1306_WriteChar
  3611   0076C0                     
  3612                           ;ssd1306.c: 269:         str++;
  3613   0076C0  4A0F               	infsnz	SSD1306_WriteString@str^0,f,c
  3614   0076C2  2A10               	incf	(SSD1306_WriteString@str+1)^0,f,c
  3615   0076C4                     l1641:
  3616                           
  3617                           ;ssd1306.c: 266:     while (*str)
  3618   0076C4  C00F  FFF6         	movff	SSD1306_WriteString@str,tblptrl
  3619   0076C8  C010  FFF7         	movff	SSD1306_WriteString@str+1,tblptrh
  3620   0076CC  6AF8               	clrf	tblptru,c
  3621   0076CE  0E07               	movlw	(high __ramtop+-1)
  3622   0076D0  64F7               	cpfsgt	tblptrh,c
  3623   0076D2  D003               	bra	u677
  3624   0076D4  0008               	tblrd		*
  3625   0076D6  50F5               	movf	tablat,w,c
  3626   0076D8  D005               	bra	u670
  3627   0076DA                     u677:
  3628   0076DA  CFF6 FFE1          	movff	tblptrl,fsr1l
  3629   0076DE  CFF7 FFE2          	movff	tblptrh,fsr1h
  3630   0076E2  50E7               	movf	indf1,w,c
  3631   0076E4                     u670:
  3632   0076E4  0900               	iorlw	0
  3633   0076E6  A4D8               	btfss	status,2,c
  3634   0076E8  EF78  F03B         	goto	u681
  3635   0076EC  EF7A  F03B         	goto	u680
  3636   0076F0                     u681:
  3637   0076F0  EF4E  F03B         	goto	l1637
  3638   0076F4                     u680:
  3639   0076F4  0012               	return		;funcret
  3640   0076F6                     __end_of_SSD1306_WriteString:
  3641                           	callstack 0
  3642                           
  3643 ;; *************** function _SSD1306_WriteChar *****************
  3644 ;; Defined at:
  3645 ;;		line 202 in file "ssd1306.c"
  3646 ;; Parameters:    Size  Location     Type
  3647 ;;  c               1    wreg     unsigned char 
  3648 ;; Auto vars:     Size  Location     Type
  3649 ;;  c               1   11[COMRAM] unsigned char 
  3650 ;;  index           2    9[COMRAM] unsigned short 
  3651 ;;  character       1   13[COMRAM] unsigned char 
  3652 ;;  i               1   12[COMRAM] unsigned char 
  3653 ;; Return value:  Size  Location     Type
  3654 ;;                  1    wreg      void 
  3655 ;; Registers used:
  3656 ;;		wreg, status,2, status,0, tblptrl, tblptrh, tblptru, prodl, prodh, cstack
  3657 ;; Tracked objects:
  3658 ;;		On entry : 0/0
  3659 ;;		On exit  : 0/0
  3660 ;;		Unchanged: 0/0
  3661 ;; Data sizes:     COMRAM   BANK0   BANK1   BANK2   BANK3   BANK4   BANK5   BANK6   BANK7
  3662 ;;      Params:         0       0       0       0       0       0       0       0       0
  3663 ;;      Locals:         5       0       0       0       0       0       0       0       0
  3664 ;;      Temps:          4       0       0       0       0       0       0       0       0
  3665 ;;      Totals:         9       0       0       0       0       0       0       0       0
  3666 ;;Total ram usage:        9 bytes
  3667 ;; Hardware stack levels used: 1
  3668 ;; Hardware stack levels required when called: 1
  3669 ;; This function calls:
  3670 ;;		_SSD1306_Data
  3671 ;;		_SSD1306_SetCursor
  3672 ;;		_SSD1306_StartData
  3673 ;;		_SSD1306_StopData
  3674 ;; This function is called by:
  3675 ;;		_SSD1306_WriteString
  3676 ;; This function uses a non-reentrant model
  3677 ;;
  3678                           
  3679                           	psect	text18
  3680   007CC6                     __ptext18:
  3681                           	callstack 0
  3682   007CC6                     _SSD1306_WriteChar:
  3683                           	callstack 27
  3684                           
  3685                           ;incstack = 0
  3686                           ;SSD1306_WriteChar@c stored from wreg
  3687   007CC6  6E0C               	movwf	SSD1306_WriteChar@c^0,c
  3688   007CC8                     
  3689                           ;ssd1306.c: 202: void SSD1306_WriteChar(char c);ssd1306.c: 203: {;ssd1306.c: 204:     ui
      +                          nt8_t i;;ssd1306.c: 205:     uint16_t index;;ssd1306.c: 206:     uint8_t character;;ssd1
      +                          306.c: 208:     if (c == '\n')
  3690   007CC8  0E0A               	movlw	10
  3691   007CCA  180C               	xorwf	SSD1306_WriteChar@c^0,w,c
  3692   007CCC  A4D8               	btfss	status,2,c
  3693   007CCE  EF6B  F03E         	goto	u521
  3694   007CD2  EF6D  F03E         	goto	u520
  3695   007CD6                     u521:
  3696   007CD6  EF81  F03E         	goto	l118
  3697   007CDA                     u520:
  3698   007CDA                     
  3699                           ;ssd1306.c: 209:     {;ssd1306.c: 210:         oled_column = 0;
  3700   007CDA  6A3A               	clrf	_oled_column^0,c
  3701   007CDC                     
  3702                           ;ssd1306.c: 212:         if (oled_page < 7)
  3703   007CDC  0E07               	movlw	7
  3704   007CDE  6039               	cpfslt	_oled_page^0,c
  3705   007CE0  EF74  F03E         	goto	u531
  3706   007CE4  EF76  F03E         	goto	u530
  3707   007CE8                     u531:
  3708   007CE8  EF79  F03E         	goto	l119
  3709   007CEC                     u530:
  3710   007CEC                     
  3711                           ;ssd1306.c: 213:         {;ssd1306.c: 214:             oled_page++;
  3712   007CEC  2A39               	incf	_oled_page^0,f,c
  3713                           
  3714                           ;ssd1306.c: 215:         }
  3715   007CEE  EF7A  F03E         	goto	l1525
  3716   007CF2                     l119:
  3717                           
  3718                           ;ssd1306.c: 217:         {;ssd1306.c: 218:             oled_page = 0;
  3719   007CF2  6A39               	clrf	_oled_page^0,c
  3720   007CF4                     l1525:
  3721                           
  3722                           ;ssd1306.c: 221:         SSD1306_SetCursor(oled_column, oled_page);
  3723   007CF4  C039  F004         	movff	_oled_page,SSD1306_SetCursor@page
  3724   007CF8  503A               	movf	_oled_column^0,w,c
  3725   007CFA  ECD9  F03A         	call	_SSD1306_SetCursor
  3726   007CFE  EFE9  F03E         	goto	l121
  3727   007D02                     l118:
  3728                           
  3729                           ;ssd1306.c: 225:     character = (uint8_t)c;
  3730   007D02  C00C  F00E         	movff	SSD1306_WriteChar@c,SSD1306_WriteChar@character
  3731   007D06                     
  3732                           ;ssd1306.c: 227:     if (character < 32 || character > 127)
  3733   007D06  0E1F               	movlw	31
  3734   007D08  640E               	cpfsgt	SSD1306_WriteChar@character^0,c
  3735   007D0A  EF89  F03E         	goto	u541
  3736   007D0E  EF8B  F03E         	goto	u540
  3737   007D12                     u541:
  3738   007D12  EF93  F03E         	goto	l1533
  3739   007D16                     u540:
  3740   007D16  0E7F               	movlw	127
  3741   007D18  640E               	cpfsgt	SSD1306_WriteChar@character^0,c
  3742   007D1A  EF91  F03E         	goto	u551
  3743   007D1E  EF93  F03E         	goto	u550
  3744   007D22                     u551:
  3745   007D22  EF95  F03E         	goto	l1535
  3746   007D26                     u550:
  3747   007D26                     l1533:
  3748                           
  3749                           ;ssd1306.c: 228:     {;ssd1306.c: 229:         character = '?';
  3750   007D26  0E3F               	movlw	63
  3751   007D28  6E0E               	movwf	SSD1306_WriteChar@character^0,c
  3752   007D2A                     l1535:
  3753                           
  3754                           ;ssd1306.c: 232:     if (oled_column > 122)
  3755   007D2A  0E7A               	movlw	122
  3756   007D2C  643A               	cpfsgt	_oled_column^0,c
  3757   007D2E  EF9B  F03E         	goto	u561
  3758   007D32  EF9D  F03E         	goto	u560
  3759   007D36                     u561:
  3760   007D36  EFAF  F03E         	goto	l1545
  3761   007D3A                     u560:
  3762   007D3A                     
  3763                           ;ssd1306.c: 233:     {;ssd1306.c: 234:         oled_column = 0;
  3764   007D3A  6A3A               	clrf	_oled_column^0,c
  3765   007D3C                     
  3766                           ;ssd1306.c: 236:         if (oled_page < 7)
  3767   007D3C  0E07               	movlw	7
  3768   007D3E  6039               	cpfslt	_oled_page^0,c
  3769   007D40  EFA4  F03E         	goto	u571
  3770   007D44  EFA6  F03E         	goto	u570
  3771   007D48                     u571:
  3772   007D48  EFA9  F03E         	goto	l126
  3773   007D4C                     u570:
  3774   007D4C                     
  3775                           ;ssd1306.c: 237:         {;ssd1306.c: 238:             oled_page++;
  3776   007D4C  2A39               	incf	_oled_page^0,f,c
  3777                           
  3778                           ;ssd1306.c: 239:         }
  3779   007D4E  EFAA  F03E         	goto	l1543
  3780   007D52                     l126:
  3781                           
  3782                           ;ssd1306.c: 241:         {;ssd1306.c: 242:             oled_page = 0;
  3783   007D52  6A39               	clrf	_oled_page^0,c
  3784   007D54                     l1543:
  3785                           
  3786                           ;ssd1306.c: 245:         SSD1306_SetCursor(oled_column, oled_page);
  3787   007D54  C039  F004         	movff	_oled_page,SSD1306_SetCursor@page
  3788   007D58  503A               	movf	_oled_column^0,w,c
  3789   007D5A  ECD9  F03A         	call	_SSD1306_SetCursor
  3790   007D5E                     l1545:
  3791                           
  3792                           ;ssd1306.c: 248:     index = ((uint16_t)(character - 32)) * 5;
  3793   007D5E  0EE0               	movlw	224
  3794   007D60  240E               	addwf	SSD1306_WriteChar@character^0,w,c
  3795   007D62  6E06               	movwf	??_SSD1306_WriteChar^0,c
  3796   007D64  6A07               	clrf	(??_SSD1306_WriteChar+1)^0,c
  3797   007D66  0EFF               	movlw	255
  3798   007D68  2207               	addwfc	(??_SSD1306_WriteChar+1)^0,f,c
  3799   007D6A  0E05               	movlw	5
  3800   007D6C  0206               	mulwf	??_SSD1306_WriteChar^0,c
  3801   007D6E  CFF3 F008          	movff	prodl,??_SSD1306_WriteChar+2
  3802   007D72  CFF4 F009          	movff	prodh,??_SSD1306_WriteChar+3
  3803   007D76  0207               	mulwf	(??_SSD1306_WriteChar+1)^0,c
  3804   007D78  50F3               	movf	prodl,w,c
  3805   007D7A  2609               	addwf	(??_SSD1306_WriteChar+3)^0,f,c
  3806   007D7C  C008  F00A         	movff	??_SSD1306_WriteChar+2,SSD1306_WriteChar@index
  3807   007D80  C009  F00B         	movff	??_SSD1306_WriteChar+3,SSD1306_WriteChar@index+1
  3808   007D84                     
  3809                           ;ssd1306.c: 250:     SSD1306_StartData();
  3810   007D84  EC10  F03A         	call	_SSD1306_StartData	;wreg free
  3811   007D88                     
  3812                           ;ssd1306.c: 252:     for (i = 0; i < 5; i++)
  3813   007D88  6A0D               	clrf	SSD1306_WriteChar@i^0,c
  3814   007D8A                     l1555:
  3815                           
  3816                           ;ssd1306.c: 253:     {;ssd1306.c: 254:         SSD1306_Data(Font5x7[index + i]);
  3817   007D8A  0ED5               	movlw	low _Font5x7
  3818   007D8C  6E06               	movwf	??_SSD1306_WriteChar^0,c
  3819   007D8E  0E7D               	movlw	high _Font5x7
  3820   007D90  6E07               	movwf	(??_SSD1306_WriteChar+1)^0,c
  3821   007D92  500D               	movf	SSD1306_WriteChar@i^0,w,c
  3822   007D94  2606               	addwf	??_SSD1306_WriteChar^0,f,c
  3823   007D96  0E00               	movlw	0
  3824   007D98  2207               	addwfc	(??_SSD1306_WriteChar+1)^0,f,c
  3825   007D9A  500A               	movf	SSD1306_WriteChar@index^0,w,c
  3826   007D9C  2606               	addwf	??_SSD1306_WriteChar^0,f,c
  3827   007D9E  500B               	movf	(SSD1306_WriteChar@index+1)^0,w,c
  3828   007DA0  2207               	addwfc	(??_SSD1306_WriteChar+1)^0,f,c
  3829   007DA2  C006  FFF6         	movff	??_SSD1306_WriteChar,tblptrl
  3830   007DA6  C007  FFF7         	movff	??_SSD1306_WriteChar+1,tblptrh
  3831   007DAA                     	if	0	;tblptru may be non-zero
  3832   007DAA                     	endif
  3833   007DAA                     	if	0	;tblptru may be non-zero
  3834   007DAA                     	endif
  3835   007DAA  0008               	tblrd		*
  3836   007DAC  50F5               	movf	tablat,w,c
  3837   007DAE  ECFC  F039         	call	_SSD1306_Data
  3838   007DB2                     
  3839                           ;ssd1306.c: 255:     }
  3840   007DB2  2A0D               	incf	SSD1306_WriteChar@i^0,f,c
  3841   007DB4  0E04               	movlw	4
  3842   007DB6  640D               	cpfsgt	SSD1306_WriteChar@i^0,c
  3843   007DB8  EFE0  F03E         	goto	u581
  3844   007DBC  EFE2  F03E         	goto	u580
  3845   007DC0                     u581:
  3846   007DC0  EFC5  F03E         	goto	l1555
  3847   007DC4                     u580:
  3848   007DC4                     
  3849                           ;ssd1306.c: 257:     SSD1306_Data(0x00);
  3850   007DC4  0E00               	movlw	0
  3851   007DC6  ECFC  F039         	call	_SSD1306_Data
  3852                           
  3853                           ;ssd1306.c: 259:     SSD1306_StopData();
  3854   007DCA  ECF9  F039         	call	_SSD1306_StopData	;wreg free
  3855   007DCE                     
  3856                           ;ssd1306.c: 261:     oled_column += 6;
  3857   007DCE  0E06               	movlw	6
  3858   007DD0  263A               	addwf	_oled_column^0,f,c
  3859   007DD2                     l121:
  3860   007DD2  0012               	return		;funcret
  3861   007DD4                     __end_of_SSD1306_WriteChar:
  3862                           	callstack 0
  3863                           
  3864 ;; *************** function _SSD1306_ClearLine *****************
  3865 ;; Defined at:
  3866 ;;		line 179 in file "ssd1306.c"
  3867 ;; Parameters:    Size  Location     Type
  3868 ;;  page            1    wreg     unsigned char 
  3869 ;; Auto vars:     Size  Location     Type
  3870 ;;  page            1    6[COMRAM] unsigned char 
  3871 ;;  column          1    5[COMRAM] unsigned char 
  3872 ;; Return value:  Size  Location     Type
  3873 ;;                  1    wreg      void 
  3874 ;; Registers used:
  3875 ;;		wreg, status,2, status,0, cstack
  3876 ;; Tracked objects:
  3877 ;;		On entry : 0/0
  3878 ;;		On exit  : 0/0
  3879 ;;		Unchanged: 0/0
  3880 ;; Data sizes:     COMRAM   BANK0   BANK1   BANK2   BANK3   BANK4   BANK5   BANK6   BANK7
  3881 ;;      Params:         0       0       0       0       0       0       0       0       0
  3882 ;;      Locals:         2       0       0       0       0       0       0       0       0
  3883 ;;      Temps:          0       0       0       0       0       0       0       0       0
  3884 ;;      Totals:         2       0       0       0       0       0       0       0       0
  3885 ;;Total ram usage:        2 bytes
  3886 ;; Hardware stack levels used: 1
  3887 ;; Hardware stack levels required when called: 4
  3888 ;; This function calls:
  3889 ;;		_SSD1306_Data
  3890 ;;		_SSD1306_SetCursor
  3891 ;;		_SSD1306_StartData
  3892 ;;		_SSD1306_StopData
  3893 ;; This function is called by:
  3894 ;;		_Display_Update
  3895 ;; This function uses a non-reentrant model
  3896 ;;
  3897                           
  3898                           	psect	text19
  3899   00764A                     __ptext19:
  3900                           	callstack 0
  3901   00764A                     _SSD1306_ClearLine:
  3902                           	callstack 25
  3903                           
  3904                           ;incstack = 0
  3905                           ;SSD1306_ClearLine@page stored from wreg
  3906   00764A  6E07               	movwf	SSD1306_ClearLine@page^0,c
  3907   00764C                     
  3908                           ;ssd1306.c: 179: void SSD1306_ClearLine(uint8_t page);ssd1306.c: 180: {;ssd1306.c: 181: 
      +                              uint8_t column;;ssd1306.c: 183:     if (page > 7)
  3909   00764C  0E07               	movlw	7
  3910   00764E  6407               	cpfsgt	SSD1306_ClearLine@page^0,c
  3911   007650  EF2C  F03B         	goto	u641
  3912   007654  EF2E  F03B         	goto	u640
  3913   007658                     u641:
  3914   007658  EF30  F03B         	goto	l1619
  3915   00765C                     u640:
  3916   00765C  EF4B  F03B         	goto	l113
  3917   007660                     l1619:
  3918                           
  3919                           ;ssd1306.c: 188:     SSD1306_SetCursor(0, page);
  3920   007660  C007  F004         	movff	SSD1306_ClearLine@page,SSD1306_SetCursor@page
  3921   007664  0E00               	movlw	0
  3922   007666  ECD9  F03A         	call	_SSD1306_SetCursor
  3923                           
  3924                           ;ssd1306.c: 190:     SSD1306_StartData();
  3925   00766A  EC10  F03A         	call	_SSD1306_StartData	;wreg free
  3926   00766E                     
  3927                           ;ssd1306.c: 192:     for (column = 0; column < 128; column++)
  3928   00766E  6A06               	clrf	SSD1306_ClearLine@column^0,c
  3929   007670                     l1627:
  3930                           
  3931                           ;ssd1306.c: 193:     {;ssd1306.c: 194:         SSD1306_Data(0x00);
  3932   007670  0E00               	movlw	0
  3933   007672  ECFC  F039         	call	_SSD1306_Data
  3934   007676                     
  3935                           ;ssd1306.c: 195:     }
  3936   007676  2A06               	incf	SSD1306_ClearLine@column^0,f,c
  3937   007678  0E7F               	movlw	127
  3938   00767A  6406               	cpfsgt	SSD1306_ClearLine@column^0,c
  3939   00767C  EF42  F03B         	goto	u651
  3940   007680  EF44  F03B         	goto	u650
  3941   007684                     u651:
  3942   007684  EF38  F03B         	goto	l1627
  3943   007688                     u650:
  3944   007688                     
  3945                           ;ssd1306.c: 197:     SSD1306_StopData();
  3946   007688  ECF9  F039         	call	_SSD1306_StopData	;wreg free
  3947                           
  3948                           ;ssd1306.c: 199:     SSD1306_SetCursor(0, page);
  3949   00768C  C007  F004         	movff	SSD1306_ClearLine@page,SSD1306_SetCursor@page
  3950   007690  0E00               	movlw	0
  3951   007692  ECD9  F03A         	call	_SSD1306_SetCursor
  3952   007696                     l113:
  3953   007696  0012               	return		;funcret
  3954   007698                     __end_of_SSD1306_ClearLine:
  3955                           	callstack 0
  3956                           
  3957 ;; *************** function _SSD1306_StopData *****************
  3958 ;; Defined at:
  3959 ;;		line 127 in file "ssd1306.c"
  3960 ;; Parameters:    Size  Location     Type
  3961 ;;		None
  3962 ;; Auto vars:     Size  Location     Type
  3963 ;;		None
  3964 ;; Return value:  Size  Location     Type
  3965 ;;                  1    wreg      void 
  3966 ;; Registers used:
  3967 ;;		wreg, status,2, status,0, cstack
  3968 ;; Tracked objects:
  3969 ;;		On entry : 0/0
  3970 ;;		On exit  : 0/0
  3971 ;;		Unchanged: 0/0
  3972 ;; Data sizes:     COMRAM   BANK0   BANK1   BANK2   BANK3   BANK4   BANK5   BANK6   BANK7
  3973 ;;      Params:         0       0       0       0       0       0       0       0       0
  3974 ;;      Locals:         0       0       0       0       0       0       0       0       0
  3975 ;;      Temps:          0       0       0       0       0       0       0       0       0
  3976 ;;      Totals:         0       0       0       0       0       0       0       0       0
  3977 ;;Total ram usage:        0 bytes
  3978 ;; Hardware stack levels used: 1
  3979 ;; This function calls:
  3980 ;;		_I2C_Master_Stop
  3981 ;; This function is called by:
  3982 ;;		_SSD1306_ClearDisplay
  3983 ;;		_SSD1306_ClearLine
  3984 ;;		_SSD1306_WriteChar
  3985 ;; This function uses a non-reentrant model
  3986 ;;
  3987                           
  3988                           	psect	text20
  3989   0073F2                     __ptext20:
  3990                           	callstack 0
  3991   0073F2                     _SSD1306_StopData:
  3992                           	callstack 27
  3993   0073F2                     
  3994                           ;ssd1306.c: 129:     I2C_Master_Stop();
  3995   0073F2  EC24  F03A         	call	_I2C_Master_Stop	;wreg free
  3996   0073F6  0012               	return		;funcret
  3997   0073F8                     __end_of_SSD1306_StopData:
  3998                           	callstack 0
  3999                           
  4000 ;; *************** function _SSD1306_StartData *****************
  4001 ;; Defined at:
  4002 ;;		line 120 in file "ssd1306.c"
  4003 ;; Parameters:    Size  Location     Type
  4004 ;;		None
  4005 ;; Auto vars:     Size  Location     Type
  4006 ;;		None
  4007 ;; Return value:  Size  Location     Type
  4008 ;;                  1    wreg      void 
  4009 ;; Registers used:
  4010 ;;		wreg, status,2, status,0, cstack
  4011 ;; Tracked objects:
  4012 ;;		On entry : 0/0
  4013 ;;		On exit  : 0/0
  4014 ;;		Unchanged: 0/0
  4015 ;; Data sizes:     COMRAM   BANK0   BANK1   BANK2   BANK3   BANK4   BANK5   BANK6   BANK7
  4016 ;;      Params:         0       0       0       0       0       0       0       0       0
  4017 ;;      Locals:         0       0       0       0       0       0       0       0       0
  4018 ;;      Temps:          0       0       0       0       0       0       0       0       0
  4019 ;;      Totals:         0       0       0       0       0       0       0       0       0
  4020 ;;Total ram usage:        0 bytes
  4021 ;; Hardware stack levels used: 1
  4022 ;; This function calls:
  4023 ;;		_I2C_Master_Start
  4024 ;;		_I2C_Master_Write
  4025 ;; This function is called by:
  4026 ;;		_SSD1306_ClearDisplay
  4027 ;;		_SSD1306_ClearLine
  4028 ;;		_SSD1306_WriteChar
  4029 ;; This function uses a non-reentrant model
  4030 ;;
  4031                           
  4032                           	psect	text21
  4033   007420                     __ptext21:
  4034                           	callstack 0
  4035   007420                     _SSD1306_StartData:
  4036                           	callstack 27
  4037   007420                     
  4038                           ;ssd1306.c: 122:     I2C_Master_Start();
  4039   007420  EC19  F03A         	call	_I2C_Master_Start	;wreg free
  4040                           
  4041                           ;ssd1306.c: 123:     I2C_Master_Write(0x78);
  4042   007424  0E78               	movlw	120
  4043   007426  EC49  F03A         	call	_I2C_Master_Write
  4044                           
  4045                           ;ssd1306.c: 124:     I2C_Master_Write(0x40);
  4046   00742A  0E40               	movlw	64
  4047   00742C  EC49  F03A         	call	_I2C_Master_Write
  4048   007430  0012               	return		;funcret
  4049   007432                     __end_of_SSD1306_StartData:
  4050                           	callstack 0
  4051                           
  4052 ;; *************** function _SSD1306_SetCursor *****************
  4053 ;; Defined at:
  4054 ;;		line 137 in file "ssd1306.c"
  4055 ;; Parameters:    Size  Location     Type
  4056 ;;  column          1    wreg     unsigned char 
  4057 ;;  page            1    3[COMRAM] unsigned char 
  4058 ;; Auto vars:     Size  Location     Type
  4059 ;;  column          1    4[COMRAM] unsigned char 
  4060 ;; Return value:  Size  Location     Type
  4061 ;;                  1    wreg      void 
  4062 ;; Registers used:
  4063 ;;		wreg, status,2, status,0, cstack
  4064 ;; Tracked objects:
  4065 ;;		On entry : 0/0
  4066 ;;		On exit  : 0/0
  4067 ;;		Unchanged: 0/0
  4068 ;; Data sizes:     COMRAM   BANK0   BANK1   BANK2   BANK3   BANK4   BANK5   BANK6   BANK7
  4069 ;;      Params:         1       0       0       0       0       0       0       0       0
  4070 ;;      Locals:         1       0       0       0       0       0       0       0       0
  4071 ;;      Temps:          0       0       0       0       0       0       0       0       0
  4072 ;;      Totals:         2       0       0       0       0       0       0       0       0
  4073 ;;Total ram usage:        2 bytes
  4074 ;; Hardware stack levels used: 1
  4075 ;; This function calls:
  4076 ;;		_SSD1306_Command
  4077 ;; This function is called by:
  4078 ;;		_SSD1306_ClearDisplay
  4079 ;;		_SSD1306_ClearLine
  4080 ;;		_SSD1306_WriteChar
  4081 ;;		_main
  4082 ;;		_Display_Update
  4083 ;; This function uses a non-reentrant model
  4084 ;;
  4085                           
  4086                           	psect	text22
  4087   0075B2                     __ptext22:
  4088                           	callstack 0
  4089   0075B2                     _SSD1306_SetCursor:
  4090                           	callstack 27
  4091                           
  4092                           ;incstack = 0
  4093                           ;SSD1306_SetCursor@column stored from wreg
  4094   0075B2  6E05               	movwf	SSD1306_SetCursor@column^0,c
  4095   0075B4                     
  4096                           ;ssd1306.c: 137: void SSD1306_SetCursor(uint8_t column, uint8_t page);ssd1306.c: 138: {;
      +                          ssd1306.c: 139:     if (column > 127)
  4097   0075B4  0E7F               	movlw	127
  4098   0075B6  6405               	cpfsgt	SSD1306_SetCursor@column^0,c
  4099   0075B8  EFE0  F03A         	goto	u421
  4100   0075BC  EFE2  F03A         	goto	u420
  4101   0075C0                     u421:
  4102   0075C0  EFE3  F03A         	goto	l1445
  4103   0075C4                     u420:
  4104   0075C4                     
  4105                           ;ssd1306.c: 140:     {;ssd1306.c: 141:         column = 0;
  4106   0075C4  6A05               	clrf	SSD1306_SetCursor@column^0,c
  4107   0075C6                     l1445:
  4108                           
  4109                           ;ssd1306.c: 144:     if (page > 7)
  4110   0075C6  0E07               	movlw	7
  4111   0075C8  6404               	cpfsgt	SSD1306_SetCursor@page^0,c
  4112   0075CA  EFE9  F03A         	goto	u431
  4113   0075CE  EFEB  F03A         	goto	u430
  4114   0075D2                     u431:
  4115   0075D2  EFEC  F03A         	goto	l101
  4116   0075D6                     u430:
  4117   0075D6                     
  4118                           ;ssd1306.c: 145:     {;ssd1306.c: 146:         page = 0;
  4119   0075D6  6A04               	clrf	SSD1306_SetCursor@page^0,c
  4120   0075D8                     l101:
  4121                           
  4122                           ;ssd1306.c: 149:     oled_column = column;
  4123   0075D8  C005  F03A         	movff	SSD1306_SetCursor@column,_oled_column
  4124                           
  4125                           ;ssd1306.c: 150:     oled_page = page;
  4126   0075DC  C004  F039         	movff	SSD1306_SetCursor@page,_oled_page
  4127   0075E0                     
  4128                           ;ssd1306.c: 152:     SSD1306_Command(0xB0 + page);
  4129   0075E0  5004               	movf	SSD1306_SetCursor@page^0,w,c
  4130   0075E2  0FB0               	addlw	176
  4131   0075E4  EC3A  F03A         	call	_SSD1306_Command
  4132                           
  4133                           ;ssd1306.c: 153:     SSD1306_Command(0x00 + (column & 0x0F));
  4134   0075E8  5005               	movf	SSD1306_SetCursor@column^0,w,c
  4135   0075EA  0B0F               	andlw	15
  4136   0075EC  EC3A  F03A         	call	_SSD1306_Command
  4137                           
  4138                           ;ssd1306.c: 154:     SSD1306_Command(0x10 + ((column >> 4) & 0x0F));
  4139   0075F0  3805               	swapf	SSD1306_SetCursor@column^0,w,c
  4140   0075F2  0B0F               	andlw	15
  4141   0075F4  0B0F               	andlw	15
  4142   0075F6  0F10               	addlw	16
  4143   0075F8  EC3A  F03A         	call	_SSD1306_Command
  4144   0075FC  0012               	return		;funcret
  4145   0075FE                     __end_of_SSD1306_SetCursor:
  4146                           	callstack 0
  4147                           
  4148 ;; *************** function _SSD1306_Command *****************
  4149 ;; Defined at:
  4150 ;;		line 111 in file "ssd1306.c"
  4151 ;; Parameters:    Size  Location     Type
  4152 ;;  command         1    wreg     unsigned char 
  4153 ;; Auto vars:     Size  Location     Type
  4154 ;;  command         1    2[COMRAM] unsigned char 
  4155 ;; Return value:  Size  Location     Type
  4156 ;;                  1    wreg      void 
  4157 ;; Registers used:
  4158 ;;		wreg, status,2, status,0, cstack
  4159 ;; Tracked objects:
  4160 ;;		On entry : 0/0
  4161 ;;		On exit  : 0/0
  4162 ;;		Unchanged: 0/0
  4163 ;; Data sizes:     COMRAM   BANK0   BANK1   BANK2   BANK3   BANK4   BANK5   BANK6   BANK7
  4164 ;;      Params:         0       0       0       0       0       0       0       0       0
  4165 ;;      Locals:         1       0       0       0       0       0       0       0       0
  4166 ;;      Temps:          0       0       0       0       0       0       0       0       0
  4167 ;;      Totals:         1       0       0       0       0       0       0       0       0
  4168 ;;Total ram usage:        1 bytes
  4169 ;; Hardware stack levels used: 1
  4170 ;; This function calls:
  4171 ;;		_I2C_Master_Start
  4172 ;;		_I2C_Master_Stop
  4173 ;;		_I2C_Master_Write
  4174 ;; This function is called by:
  4175 ;;		_SSD1306_SetCursor
  4176 ;;		_SSD1306_Init
  4177 ;; This function uses a non-reentrant model
  4178 ;;
  4179                           
  4180                           	psect	text23
  4181   007474                     __ptext23:
  4182                           	callstack 0
  4183   007474                     _SSD1306_Command:
  4184                           	callstack 26
  4185                           
  4186                           ;incstack = 0
  4187                           ;SSD1306_Command@command stored from wreg
  4188   007474  6E03               	movwf	SSD1306_Command@command^0,c
  4189   007476                     
  4190                           ;ssd1306.c: 111: static void SSD1306_Command(uint8_t command);ssd1306.c: 112: {;ssd1306.
      +                          c: 113:     I2C_Master_Start();
  4191   007476  EC19  F03A         	call	_I2C_Master_Start	;wreg free
  4192                           
  4193                           ;ssd1306.c: 114:     I2C_Master_Write(0x78);
  4194   00747A  0E78               	movlw	120
  4195   00747C  EC49  F03A         	call	_I2C_Master_Write
  4196                           
  4197                           ;ssd1306.c: 115:     I2C_Master_Write(0x00);
  4198   007480  0E00               	movlw	0
  4199   007482  EC49  F03A         	call	_I2C_Master_Write
  4200                           
  4201                           ;ssd1306.c: 116:     I2C_Master_Write(command);
  4202   007486  5003               	movf	SSD1306_Command@command^0,w,c
  4203   007488  EC49  F03A         	call	_I2C_Master_Write
  4204                           
  4205                           ;ssd1306.c: 117:     I2C_Master_Stop();
  4206   00748C  EC24  F03A         	call	_I2C_Master_Stop	;wreg free
  4207   007490  0012               	return		;funcret
  4208   007492                     __end_of_SSD1306_Command:
  4209                           	callstack 0
  4210                           
  4211 ;; *************** function _I2C_Master_Stop *****************
  4212 ;; Defined at:
  4213 ;;		line 44 in file "i2c_master.c"
  4214 ;; Parameters:    Size  Location     Type
  4215 ;;		None
  4216 ;; Auto vars:     Size  Location     Type
  4217 ;;		None
  4218 ;; Return value:  Size  Location     Type
  4219 ;;                  1    wreg      void 
  4220 ;; Registers used:
  4221 ;;		wreg, status,2, status,0, cstack
  4222 ;; Tracked objects:
  4223 ;;		On entry : 0/0
  4224 ;;		On exit  : 0/0
  4225 ;;		Unchanged: 0/0
  4226 ;; Data sizes:     COMRAM   BANK0   BANK1   BANK2   BANK3   BANK4   BANK5   BANK6   BANK7
  4227 ;;      Params:         0       0       0       0       0       0       0       0       0
  4228 ;;      Locals:         0       0       0       0       0       0       0       0       0
  4229 ;;      Temps:          0       0       0       0       0       0       0       0       0
  4230 ;;      Totals:         0       0       0       0       0       0       0       0       0
  4231 ;;Total ram usage:        0 bytes
  4232 ;; Hardware stack levels used: 1
  4233 ;; This function calls:
  4234 ;;		_I2C_Master_Wait
  4235 ;; This function is called by:
  4236 ;;		_SSD1306_Command
  4237 ;;		_SSD1306_StopData
  4238 ;; This function uses a non-reentrant model
  4239 ;;
  4240                           
  4241                           	psect	text24
  4242   007448                     __ptext24:
  4243                           	callstack 0
  4244   007448                     _I2C_Master_Stop:
  4245                           	callstack 25
  4246   007448                     
  4247                           ;i2c_master.c: 46:     I2C_Master_Wait();
  4248   007448  EC69  F03A         	call	_I2C_Master_Wait	;wreg free
  4249   00744C                     
  4250                           ;i2c_master.c: 47:     SSPCON2bits.PEN = 1;
  4251   00744C  84C5               	bsf	197,2,c	;volatile
  4252   00744E                     l36:
  4253   00744E  B4C5               	btfsc	197,2,c	;volatile
  4254   007450  EF2C  F03A         	goto	u41
  4255   007454  EF2E  F03A         	goto	u40
  4256   007458                     u41:
  4257   007458  EF27  F03A         	goto	l36
  4258   00745C                     u40:
  4259   00745C  0012               	return		;funcret
  4260   00745E                     __end_of_I2C_Master_Stop:
  4261                           	callstack 0
  4262                           
  4263 ;; *************** function _I2C_Master_Start *****************
  4264 ;; Defined at:
  4265 ;;		line 37 in file "i2c_master.c"
  4266 ;; Parameters:    Size  Location     Type
  4267 ;;		None
  4268 ;; Auto vars:     Size  Location     Type
  4269 ;;		None
  4270 ;; Return value:  Size  Location     Type
  4271 ;;                  1    wreg      void 
  4272 ;; Registers used:
  4273 ;;		wreg, status,2, status,0, cstack
  4274 ;; Tracked objects:
  4275 ;;		On entry : 0/0
  4276 ;;		On exit  : 0/0
  4277 ;;		Unchanged: 0/0
  4278 ;; Data sizes:     COMRAM   BANK0   BANK1   BANK2   BANK3   BANK4   BANK5   BANK6   BANK7
  4279 ;;      Params:         0       0       0       0       0       0       0       0       0
  4280 ;;      Locals:         0       0       0       0       0       0       0       0       0
  4281 ;;      Temps:          0       0       0       0       0       0       0       0       0
  4282 ;;      Totals:         0       0       0       0       0       0       0       0       0
  4283 ;;Total ram usage:        0 bytes
  4284 ;; Hardware stack levels used: 1
  4285 ;; This function calls:
  4286 ;;		_I2C_Master_Wait
  4287 ;; This function is called by:
  4288 ;;		_SSD1306_Command
  4289 ;;		_SSD1306_StartData
  4290 ;; This function uses a non-reentrant model
  4291 ;;
  4292                           
  4293                           	psect	text25
  4294   007432                     __ptext25:
  4295                           	callstack 0
  4296   007432                     _I2C_Master_Start:
  4297                           	callstack 25
  4298   007432                     
  4299                           ;i2c_master.c: 39:     I2C_Master_Wait();
  4300   007432  EC69  F03A         	call	_I2C_Master_Wait	;wreg free
  4301   007436                     
  4302                           ;i2c_master.c: 40:     SSPCON2bits.SEN = 1;
  4303   007436  80C5               	bsf	197,0,c	;volatile
  4304   007438                     l30:
  4305   007438  B0C5               	btfsc	197,0,c	;volatile
  4306   00743A  EF21  F03A         	goto	u31
  4307   00743E  EF23  F03A         	goto	u30
  4308   007442                     u31:
  4309   007442  EF1C  F03A         	goto	l30
  4310   007446                     u30:
  4311   007446  0012               	return		;funcret
  4312   007448                     __end_of_I2C_Master_Start:
  4313                           	callstack 0
  4314                           
  4315 ;; *************** function _SSD1306_Data *****************
  4316 ;; Defined at:
  4317 ;;		line 132 in file "ssd1306.c"
  4318 ;; Parameters:    Size  Location     Type
  4319 ;;  data            1    wreg     unsigned char 
  4320 ;; Auto vars:     Size  Location     Type
  4321 ;;  data            1    2[COMRAM] unsigned char 
  4322 ;; Return value:  Size  Location     Type
  4323 ;;                  1    wreg      void 
  4324 ;; Registers used:
  4325 ;;		wreg, status,2, status,0, cstack
  4326 ;; Tracked objects:
  4327 ;;		On entry : 0/0
  4328 ;;		On exit  : 0/0
  4329 ;;		Unchanged: 0/0
  4330 ;; Data sizes:     COMRAM   BANK0   BANK1   BANK2   BANK3   BANK4   BANK5   BANK6   BANK7
  4331 ;;      Params:         0       0       0       0       0       0       0       0       0
  4332 ;;      Locals:         1       0       0       0       0       0       0       0       0
  4333 ;;      Temps:          0       0       0       0       0       0       0       0       0
  4334 ;;      Totals:         1       0       0       0       0       0       0       0       0
  4335 ;;Total ram usage:        1 bytes
  4336 ;; Hardware stack levels used: 1
  4337 ;; This function calls:
  4338 ;;		_I2C_Master_Write
  4339 ;; This function is called by:
  4340 ;;		_SSD1306_ClearDisplay
  4341 ;;		_SSD1306_ClearLine
  4342 ;;		_SSD1306_WriteChar
  4343 ;; This function uses a non-reentrant model
  4344 ;;
  4345                           
  4346                           	psect	text26
  4347   0073F8                     __ptext26:
  4348                           	callstack 0
  4349   0073F8                     _SSD1306_Data:
  4350                           	callstack 27
  4351                           
  4352                           ;incstack = 0
  4353                           ;SSD1306_Data@data stored from wreg
  4354   0073F8  6E03               	movwf	SSD1306_Data@data^0,c
  4355   0073FA                     
  4356                           ;ssd1306.c: 132: static void SSD1306_Data(uint8_t data);ssd1306.c: 133: {;ssd1306.c: 134
      +                          :     I2C_Master_Write(data);
  4357   0073FA  5003               	movf	SSD1306_Data@data^0,w,c
  4358   0073FC  EC49  F03A         	call	_I2C_Master_Write
  4359   007400  0012               	return		;funcret
  4360   007402                     __end_of_SSD1306_Data:
  4361                           	callstack 0
  4362                           
  4363 ;; *************** function _I2C_Master_Write *****************
  4364 ;; Defined at:
  4365 ;;		line 51 in file "i2c_master.c"
  4366 ;; Parameters:    Size  Location     Type
  4367 ;;  data            1    wreg     unsigned char 
  4368 ;; Auto vars:     Size  Location     Type
  4369 ;;  data            1    1[COMRAM] unsigned char 
  4370 ;; Return value:  Size  Location     Type
  4371 ;;                  1    wreg      unsigned char 
  4372 ;; Registers used:
  4373 ;;		wreg, status,2, status,0, cstack
  4374 ;; Tracked objects:
  4375 ;;		On entry : 0/0
  4376 ;;		On exit  : 0/0
  4377 ;;		Unchanged: 0/0
  4378 ;; Data sizes:     COMRAM   BANK0   BANK1   BANK2   BANK3   BANK4   BANK5   BANK6   BANK7
  4379 ;;      Params:         0       0       0       0       0       0       0       0       0
  4380 ;;      Locals:         1       0       0       0       0       0       0       0       0
  4381 ;;      Temps:          0       0       0       0       0       0       0       0       0
  4382 ;;      Totals:         1       0       0       0       0       0       0       0       0
  4383 ;;Total ram usage:        1 bytes
  4384 ;; Hardware stack levels used: 1
  4385 ;; This function calls:
  4386 ;;		_I2C_Master_Wait
  4387 ;; This function is called by:
  4388 ;;		_SSD1306_Command
  4389 ;;		_SSD1306_StartData
  4390 ;;		_SSD1306_Data
  4391 ;; This function uses a non-reentrant model
  4392 ;;
  4393                           
  4394                           	psect	text27
  4395   007492                     __ptext27:
  4396                           	callstack 0
  4397   007492                     _I2C_Master_Write:
  4398                           	callstack 25
  4399                           
  4400                           ;incstack = 0
  4401                           ;I2C_Master_Write@data stored from wreg
  4402   007492  6E02               	movwf	I2C_Master_Write@data^0,c
  4403   007494                     
  4404                           ;i2c_master.c: 51: uint8_t I2C_Master_Write(uint8_t data);i2c_master.c: 52: {;i2c_master
      +                          .c: 53:     I2C_Master_Wait();
  4405   007494  EC69  F03A         	call	_I2C_Master_Wait	;wreg free
  4406   007498                     
  4407                           ;i2c_master.c: 55:     PIR1bits.SSPIF = 0;
  4408   007498  969E               	bcf	158,3,c	;volatile
  4409   00749A                     
  4410                           ;i2c_master.c: 56:     SSPBUF = data;
  4411   00749A  C002  FFC9         	movff	I2C_Master_Write@data,4041	;volatile
  4412   00749E                     l42:
  4413   00749E  A69E               	btfss	158,3,c	;volatile
  4414   0074A0  EF54  F03A         	goto	u51
  4415   0074A4  EF56  F03A         	goto	u50
  4416   0074A8                     u51:
  4417   0074A8  EF4F  F03A         	goto	l42
  4418   0074AC                     u50:
  4419   0074AC                     
  4420                           ;i2c_master.c: 59:     PIR1bits.SSPIF = 0;
  4421   0074AC  969E               	bcf	158,3,c	;volatile
  4422   0074AE                     
  4423                           ;i2c_master.c: 66:     return SSPCON2bits.ACKSTAT;;	Return value of _I2C_Master_Write is
      +                           never used
  4424   0074AE  50C5               	movf	197,w,c	;volatile
  4425   0074B0  0012               	return		;funcret
  4426   0074B2                     __end_of_I2C_Master_Write:
  4427                           	callstack 0
  4428                           
  4429 ;; *************** function _I2C_Master_Wait *****************
  4430 ;; Defined at:
  4431 ;;		line 10 in file "i2c_master.c"
  4432 ;; Parameters:    Size  Location     Type
  4433 ;;		None
  4434 ;; Auto vars:     Size  Location     Type
  4435 ;;		None
  4436 ;; Return value:  Size  Location     Type
  4437 ;;                  1    wreg      void 
  4438 ;; Registers used:
  4439 ;;		wreg, status,2, status,0
  4440 ;; Tracked objects:
  4441 ;;		On entry : 0/0
  4442 ;;		On exit  : 0/0
  4443 ;;		Unchanged: 0/0
  4444 ;; Data sizes:     COMRAM   BANK0   BANK1   BANK2   BANK3   BANK4   BANK5   BANK6   BANK7
  4445 ;;      Params:         0       0       0       0       0       0       0       0       0
  4446 ;;      Locals:         0       0       0       0       0       0       0       0       0
  4447 ;;      Temps:          1       0       0       0       0       0       0       0       0
  4448 ;;      Totals:         1       0       0       0       0       0       0       0       0
  4449 ;;Total ram usage:        1 bytes
  4450 ;; Hardware stack levels used: 1
  4451 ;; This function calls:
  4452 ;;		Nothing
  4453 ;; This function is called by:
  4454 ;;		_I2C_Master_Start
  4455 ;;		_I2C_Master_Stop
  4456 ;;		_I2C_Master_Write
  4457 ;; This function uses a non-reentrant model
  4458 ;;
  4459                           
  4460                           	psect	text28
  4461   0074D2                     __ptext28:
  4462                           	callstack 0
  4463   0074D2                     _I2C_Master_Wait:
  4464                           	callstack 24
  4465   0074D2                     l1013:
  4466   0074D2  CFC5 F001          	movff	4037,??_I2C_Master_Wait	;volatile
  4467   0074D6  0E1F               	movlw	31
  4468   0074D8  1601               	andwf	??_I2C_Master_Wait^0,f,c
  4469   0074DA  A4D8               	btfss	status,2,c
  4470   0074DC  EF72  F03A         	goto	u11
  4471   0074E0  EF74  F03A         	goto	u10
  4472   0074E4                     u11:
  4473   0074E4  EF69  F03A         	goto	l1013
  4474   0074E8                     u10:
  4475   0074E8  B4C7               	btfsc	199,2,c	;volatile
  4476   0074EA  EF79  F03A         	goto	u21
  4477   0074EE  EF7B  F03A         	goto	u20
  4478   0074F2                     u21:
  4479   0074F2  EF69  F03A         	goto	l1013
  4480   0074F6                     u20:
  4481   0074F6  0012               	return		;funcret
  4482   0074F8                     __end_of_I2C_Master_Wait:
  4483                           	callstack 0
  4484                           
  4485                           	psect	rparam
  4486   000001                     ___rparam_used  equ	1
  4487   000000                     ___param_bank   equ	0
  4488   000000                     __Lparam        equ	__Lrparam
  4489   000000                     __Hparam        equ	__Hrparam
  4490                           
  4491                           	psect	config
  4492                           
  4493                           ;Config register CONFIG1L @ 0x300000
  4494                           ;	PLL Prescaler Selection bits
  4495                           ;	PLLDIV = 1, No prescale (4 MHz oscillator input drives PLL directly)
  4496                           ;	System Clock Postscaler Selection bits
  4497                           ;	CPUDIV = OSC1_PLL2, [Primary Oscillator Src: /1][96 MHz PLL Src: /2]
  4498                           ;	USB Clock Selection bit (used in Full-Speed USB mode only; UCFG:FSEN = 1)
  4499                           ;	USBDIV = 1, USB clock source comes directly from the primary oscillator block with no 
      +                          postscale
  4500   300000                     	org	3145728
  4501   300000  00                 	db	0
  4502                           
  4503                           ;Config register CONFIG1H @ 0x300001
  4504                           ;	Oscillator Selection bits
  4505                           ;	FOSC = INTOSCIO_EC, Internal oscillator, port function on RA6, EC used by USB (INTIO)
  4506                           ;	Fail-Safe Clock Monitor Enable bit
  4507                           ;	FCMEN = OFF, Fail-Safe Clock Monitor disabled
  4508                           ;	Internal/External Oscillator Switchover bit
  4509                           ;	IESO = OFF, Oscillator Switchover mode disabled
  4510   300001                     	org	3145729
  4511   300001  08                 	db	8
  4512                           
  4513                           ;Config register CONFIG2L @ 0x300002
  4514                           ;	Power-up Timer Enable bit
  4515                           ;	PWRT = ON, PWRT enabled
  4516                           ;	Brown-out Reset Enable bits
  4517                           ;	BOR = OFF, Brown-out Reset disabled in hardware and software
  4518                           ;	Brown-out Reset Voltage bits
  4519                           ;	BORV = 3, Minimum setting 2.05V
  4520                           ;	USB Voltage Regulator Enable bit
  4521                           ;	VREGEN = OFF, USB voltage regulator disabled
  4522   300002                     	org	3145730
  4523   300002  18                 	db	24
  4524                           
  4525                           ;Config register CONFIG2H @ 0x300003
  4526                           ;	Watchdog Timer Enable bit
  4527                           ;	WDT = OFF, WDT disabled (control is placed on the SWDTEN bit)
  4528                           ;	Watchdog Timer Postscale Select bits
  4529                           ;	WDTPS = 32768, 1:32768
  4530   300003                     	org	3145731
  4531   300003  1E                 	db	30
  4532                           
  4533                           ; Padding undefined space
  4534   300004                     	org	3145732
  4535   300004  FF                 	db	255
  4536                           
  4537                           ;Config register CONFIG3H @ 0x300005
  4538                           ;	CCP2 MUX bit
  4539                           ;	CCP2MX = ON, CCP2 input/output is multiplexed with RC1
  4540                           ;	PORTB A/D Enable bit
  4541                           ;	PBADEN = OFF, PORTB<4:0> pins are configured as digital I/O on Reset
  4542                           ;	Low-Power Timer 1 Oscillator Enable bit
  4543                           ;	LPT1OSC = OFF, Timer1 configured for higher power operation
  4544                           ;	MCLR Pin Enable bit
  4545                           ;	MCLRE = ON, MCLR pin enabled; RE3 input pin disabled
  4546   300005                     	org	3145733
  4547   300005  81                 	db	129
  4548                           
  4549                           ;Config register CONFIG4L @ 0x300006
  4550                           ;	Stack Full/Underflow Reset Enable bit
  4551                           ;	STVREN = ON, Stack full/underflow will cause Reset
  4552                           ;	Single-Supply ICSP Enable bit
  4553                           ;	LVP = OFF, Single-Supply ICSP disabled
  4554                           ;	Dedicated In-Circuit Debug/Programming Port (ICPORT) Enable bit
  4555                           ;	ICPRT = OFF, ICPORT disabled
  4556                           ;	Extended Instruction Set Enable bit
  4557                           ;	XINST = OFF, Instruction set extension and Indexed Addressing mode disabled (Legacy mo
      +                          de)
  4558                           ;	Background Debugger Enable bit
  4559                           ;	DEBUG = 0x1, unprogrammed default
  4560   300006                     	org	3145734
  4561   300006  81                 	db	129
  4562                           
  4563                           ; Padding undefined space
  4564   300007                     	org	3145735
  4565   300007  FF                 	db	255
  4566                           
  4567                           ;Config register CONFIG5L @ 0x300008
  4568                           ;	Code Protection bit
  4569                           ;	CP0 = OFF, Block 0 (000800-001FFFh) is not code-protected
  4570                           ;	Code Protection bit
  4571                           ;	CP1 = OFF, Block 1 (002000-003FFFh) is not code-protected
  4572                           ;	Code Protection bit
  4573                           ;	CP2 = OFF, Block 2 (004000-005FFFh) is not code-protected
  4574                           ;	Code Protection bit
  4575                           ;	CP3 = OFF, Block 3 (006000-007FFFh) is not code-protected
  4576   300008                     	org	3145736
  4577   300008  0F                 	db	15
  4578                           
  4579                           ;Config register CONFIG5H @ 0x300009
  4580                           ;	Boot Block Code Protection bit
  4581                           ;	CPB = OFF, Boot block (000000-0007FFh) is not code-protected
  4582                           ;	Data EEPROM Code Protection bit
  4583                           ;	CPD = OFF, Data EEPROM is not code-protected
  4584   300009                     	org	3145737
  4585   300009  C0                 	db	192
  4586                           
  4587                           ;Config register CONFIG6L @ 0x30000A
  4588                           ;	Write Protection bit
  4589                           ;	WRT0 = OFF, Block 0 (000800-001FFFh) is not write-protected
  4590                           ;	Write Protection bit
  4591                           ;	WRT1 = OFF, Block 1 (002000-003FFFh) is not write-protected
  4592                           ;	Write Protection bit
  4593                           ;	WRT2 = OFF, Block 2 (004000-005FFFh) is not write-protected
  4594                           ;	Write Protection bit
  4595                           ;	WRT3 = OFF, Block 3 (006000-007FFFh) is not write-protected
  4596   30000A                     	org	3145738
  4597   30000A  0F                 	db	15
  4598                           
  4599                           ;Config register CONFIG6H @ 0x30000B
  4600                           ;	Configuration Register Write Protection bit
  4601                           ;	WRTC = OFF, Configuration registers (300000-3000FFh) are not write-protected
  4602                           ;	Boot Block Write Protection bit
  4603                           ;	WRTB = OFF, Boot block (000000-0007FFh) is not write-protected
  4604                           ;	Data EEPROM Write Protection bit
  4605                           ;	WRTD = OFF, Data EEPROM is not write-protected
  4606   30000B                     	org	3145739
  4607   30000B  E0                 	db	224
  4608                           
  4609                           ;Config register CONFIG7L @ 0x30000C
  4610                           ;	Table Read Protection bit
  4611                           ;	EBTR0 = OFF, Block 0 (000800-001FFFh) is not protected from table reads executed in ot
      +                          her blocks
  4612                           ;	Table Read Protection bit
  4613                           ;	EBTR1 = OFF, Block 1 (002000-003FFFh) is not protected from table reads executed in ot
      +                          her blocks
  4614                           ;	Table Read Protection bit
  4615                           ;	EBTR2 = OFF, Block 2 (004000-005FFFh) is not protected from table reads executed in ot
      +                          her blocks
  4616                           ;	Table Read Protection bit
  4617                           ;	EBTR3 = OFF, Block 3 (006000-007FFFh) is not protected from table reads executed in ot
      +                          her blocks
  4618   30000C                     	org	3145740
  4619   30000C  0F                 	db	15
  4620                           
  4621                           ;Config register CONFIG7H @ 0x30000D
  4622                           ;	Boot Block Table Read Protection bit
  4623                           ;	EBTRB = OFF, Boot block (000000-0007FFh) is not protected from table reads executed in
      +                           other blocks
  4624   30000D                     	org	3145741
  4625   30000D  40                 	db	64
  4626                           tosu	equ	0xFFF
  4627                           tosh	equ	0xFFE
  4628                           tosl	equ	0xFFD
  4629                           stkptr	equ	0xFFC
  4630                           pclatu	equ	0xFFB
  4631                           pclath	equ	0xFFA
  4632                           pcl	equ	0xFF9
  4633                           tblptru	equ	0xFF8
  4634                           tblptrh	equ	0xFF7
  4635                           tblptrl	equ	0xFF6
  4636                           tablat	equ	0xFF5
  4637                           prodh	equ	0xFF4
  4638                           prodl	equ	0xFF3
  4639                           indf0	equ	0xFEF
  4640                           postinc0	equ	0xFEE
  4641                           postdec0	equ	0xFED
  4642                           preinc0	equ	0xFEC
  4643                           plusw0	equ	0xFEB
  4644                           fsr0h	equ	0xFEA
  4645                           fsr0l	equ	0xFE9
  4646                           wreg	equ	0xFE8
  4647                           indf1	equ	0xFE7
  4648                           postinc1	equ	0xFE6
  4649                           postdec1	equ	0xFE5
  4650                           preinc1	equ	0xFE4
  4651                           plusw1	equ	0xFE3
  4652                           fsr1h	equ	0xFE2
  4653                           fsr1l	equ	0xFE1
  4654                           bsr	equ	0xFE0
  4655                           indf2	equ	0xFDF
  4656                           postinc2	equ	0xFDE
  4657                           postdec2	equ	0xFDD
  4658                           preinc2	equ	0xFDC
  4659                           plusw2	equ	0xFDB
  4660                           fsr2h	equ	0xFDA
  4661                           fsr2l	equ	0xFD9
  4662                           status	equ	0xFD8

Data Sizes:
    Strings     69
    Constant    480
    Data        0
    BSS         2
    Persistent  0
    Stack       0

Auto Spaces:
    Space          Size  Autos    Used
    COMRAM           95     56      58
    BANK0           160      0       0
    BANK1           256      0       0
    BANK2           256      0       0
    BANK3           256      0       0
    BANK4           256      0       0
    BANK5           256      0       0
    BANK6           256      0       0
    BANK7           256      0       0

Pointer List with Targets:

    SSD1306_WriteString@str	PTR const unsigned char  size(2) Largest target is 15
		 -> Display_Update@adc_text(COMRAM[6]), Display_Update@temp_text(COMRAM[8]), STR_1(CODE[12]), STR_2(CODE[11]), 
		 -> STR_3(CODE[15]), STR_4(CODE[6]), STR_5(CODE[7]), STR_6(CODE[3]), 
		 -> STR_7(CODE[9]), STR_8(CODE[9]), 

    Temperature_To_String@buffer	PTR unsigned char  size(1) Largest target is 8
		 -> Display_Update@temp_text(COMRAM[8]), 

    UInt16_To_String@buffer	PTR unsigned char  size(1) Largest target is 6
		 -> Display_Update@adc_text(COMRAM[6]), Temperature_To_String@integer_text(COMRAM[6]), 


Critical Paths under _main in COMRAM

    _main->_Display_Update
    _System_Init->_SSD1306_Init
    _SSD1306_Init->_SSD1306_ClearDisplay
    _SSD1306_ClearDisplay->_SSD1306_SetCursor
    _Read_LM35_Temperature_X10->___lldiv
    ___lldiv->___lmul
    _Display_Update->_Temperature_To_String
    _Temperature_To_String->_UInt16_To_String
    _UInt16_To_String->___lwdiv
    _SSD1306_WriteString->_SSD1306_WriteChar
    _SSD1306_WriteChar->_SSD1306_SetCursor
    _SSD1306_ClearLine->_SSD1306_SetCursor
    _SSD1306_StartData->_I2C_Master_Write
    _SSD1306_SetCursor->_SSD1306_Command
    _SSD1306_Command->_I2C_Master_Write
    _I2C_Master_Stop->_I2C_Master_Wait
    _I2C_Master_Start->_I2C_Master_Wait
    _SSD1306_Data->_I2C_Master_Write
    _I2C_Master_Write->_I2C_Master_Wait

Critical Paths under _main in BANK0

    None.

Critical Paths under _main in BANK1

    None.

Critical Paths under _main in BANK2

    None.

Critical Paths under _main in BANK3

    None.

Critical Paths under _main in BANK4

    None.

Critical Paths under _main in BANK5

    None.

Critical Paths under _main in BANK6

    None.

Critical Paths under _main in BANK7

    None.

Call Graph Tables:

 ---------------------------------------------------------------------------------
 (Depth) Function   	        Calls       Base Space   Used Autos Params    Refs
 ---------------------------------------------------------------------------------
 (0) _main                                                 6     6      0    5536
                                             50 COMRAM     6     6      0
                           _ADC_Read
                     _Display_Update
                 _Process_Components
          _Read_LM35_Temperature_X10
               _SSD1306_ClearDisplay
                  _SSD1306_SetCursor
                _SSD1306_WriteString
                   _Startup_LED_Test
                        _System_Init
 ---------------------------------------------------------------------------------
 (1) _System_Init                                          0     0      0     417
                           _ADC_Init
                    _I2C_Master_Init
                       _SSD1306_Init
 ---------------------------------------------------------------------------------
 (2) _SSD1306_Init                                         2     2      0     416
                                              7 COMRAM     2     2      0
               _SSD1306_ClearDisplay
                    _SSD1306_Command
 ---------------------------------------------------------------------------------
 (3) _SSD1306_ClearDisplay                                 2     2      0     386
                                              5 COMRAM     2     2      0
                       _SSD1306_Data
                  _SSD1306_SetCursor
                  _SSD1306_StartData
                   _SSD1306_StopData
 ---------------------------------------------------------------------------------
 (2) _I2C_Master_Init                                      4     0      4       1
                                              0 COMRAM     4     0      4
 ---------------------------------------------------------------------------------
 (2) _ADC_Init                                             0     0      0       0
 ---------------------------------------------------------------------------------
 (1) _Startup_LED_Test                                     3     3      0      30
                                              0 COMRAM     3     3      0
 ---------------------------------------------------------------------------------
 (1) _Read_LM35_Temperature_X10                            8     6      2     364
                                             25 COMRAM     8     6      2
                           _ADC_Read
                            ___lldiv
                             ___lmul
 ---------------------------------------------------------------------------------
 (2) ___lmul                                              12     4      8      94
                                              0 COMRAM    12     4      8
 ---------------------------------------------------------------------------------
 (2) ___lldiv                                             13     5      8     164
                                             12 COMRAM    13     5      8
                             ___lmul (ARG)
 ---------------------------------------------------------------------------------
 (2) _ADC_Read                                             5     3      2      60
                                              0 COMRAM     5     3      2
 ---------------------------------------------------------------------------------
 (1) _Process_Components                                   2     0      2      23
                                              0 COMRAM     2     0      2
 ---------------------------------------------------------------------------------
 (1) _Display_Update                                      18    14      4    3417
                                             32 COMRAM    18    14      4
                  _SSD1306_ClearLine
                  _SSD1306_SetCursor
                _SSD1306_WriteString
              _Temperature_To_String
                   _UInt16_To_String
 ---------------------------------------------------------------------------------
 (2) _Temperature_To_String                               14    11      3    1393
                                             18 COMRAM    14    11      3
                   _UInt16_To_String
                            ___lwdiv
                            ___lwmod
 ---------------------------------------------------------------------------------
 (3) _UInt16_To_String                                    11     8      3     672
                                              7 COMRAM    11     8      3
                            ___lwdiv
                            ___lwmod
 ---------------------------------------------------------------------------------
 (4) ___lwmod                                              5     1      4     163
                                              0 COMRAM     5     1      4
 ---------------------------------------------------------------------------------
 (4) ___lwdiv                                              7     3      4     166
                                              0 COMRAM     7     3      4
 ---------------------------------------------------------------------------------
 (2) _SSD1306_WriteString                                  2     0      2     544
                                             14 COMRAM     2     0      2
                  _SSD1306_WriteChar
 ---------------------------------------------------------------------------------
 (3) _SSD1306_WriteChar                                    9     9      0     489
                                              5 COMRAM     9     9      0
                       _SSD1306_Data
                  _SSD1306_SetCursor
                  _SSD1306_StartData
                   _SSD1306_StopData
 ---------------------------------------------------------------------------------
 (2) _SSD1306_ClearLine                                    2     2      0     405
                                              5 COMRAM     2     2      0
                       _SSD1306_Data
                  _SSD1306_SetCursor
                  _SSD1306_StartData
                   _SSD1306_StopData
 ---------------------------------------------------------------------------------
 (4) _SSD1306_StopData                                     0     0      0       0
                    _I2C_Master_Stop
 ---------------------------------------------------------------------------------
 (4) _SSD1306_StartData                                    0     0      0      15
                   _I2C_Master_Start
                   _I2C_Master_Write
 ---------------------------------------------------------------------------------
 (4) _SSD1306_SetCursor                                    2     1      1     227
                                              3 COMRAM     2     1      1
                    _SSD1306_Command
 ---------------------------------------------------------------------------------
 (5) _SSD1306_Command                                      1     1      0      30
                                              2 COMRAM     1     1      0
                   _I2C_Master_Start
                    _I2C_Master_Stop
                   _I2C_Master_Write
 ---------------------------------------------------------------------------------
 (6) _I2C_Master_Stop                                      0     0      0       0
                    _I2C_Master_Wait
 ---------------------------------------------------------------------------------
 (6) _I2C_Master_Start                                     0     0      0       0
                    _I2C_Master_Wait
 ---------------------------------------------------------------------------------
 (4) _SSD1306_Data                                         1     1      0      30
                                              2 COMRAM     1     1      0
                   _I2C_Master_Write
 ---------------------------------------------------------------------------------
 (6) _I2C_Master_Write                                     1     1      0      15
                                              1 COMRAM     1     1      0
                    _I2C_Master_Wait
 ---------------------------------------------------------------------------------
 (7) _I2C_Master_Wait                                      1     1      0       0
                                              0 COMRAM     1     1      0
 ---------------------------------------------------------------------------------
 Estimated maximum stack depth 7
 ---------------------------------------------------------------------------------

 Call Graph Graphs:

 _main (ROOT)
   _ADC_Read
   _Display_Update
     _SSD1306_ClearLine
       _SSD1306_Data
         _I2C_Master_Write
           _I2C_Master_Wait
       _SSD1306_SetCursor
         _SSD1306_Command
           _I2C_Master_Start
             _I2C_Master_Wait
           _I2C_Master_Stop
             _I2C_Master_Wait
           _I2C_Master_Write
       _SSD1306_StartData
         _I2C_Master_Start
         _I2C_Master_Write
       _SSD1306_StopData
         _I2C_Master_Stop
     _SSD1306_SetCursor
     _SSD1306_WriteString
       _SSD1306_WriteChar
         _SSD1306_Data
         _SSD1306_SetCursor
         _SSD1306_StartData
         _SSD1306_StopData
     _Temperature_To_String
       _UInt16_To_String
         ___lwdiv
         ___lwmod
       ___lwdiv
       ___lwmod
     _UInt16_To_String
   _Process_Components
   _Read_LM35_Temperature_X10
     _ADC_Read
     ___lldiv
       ___lmul (ARG)
     ___lmul
   _SSD1306_ClearDisplay
     _SSD1306_Data
     _SSD1306_SetCursor
     _SSD1306_StartData
     _SSD1306_StopData
   _SSD1306_SetCursor
   _SSD1306_WriteString
   _Startup_LED_Test
   _System_Init
     _ADC_Init
     _I2C_Master_Init
     _SSD1306_Init
       _SSD1306_ClearDisplay
       _SSD1306_Command

Address spaces:
Name               Size   Autos  Total    Usage
BIGRAM            2047      0       0      0.0%
BITBANK7           256      0       0      0.0%
BANK7              256      0       0      0.0%
BITBANK6           256      0       0      0.0%
BANK6              256      0       0      0.0%
BITBANK5           256      0       0      0.0%
BANK5              256      0       0      0.0%
BITBANK4           256      0       0      0.0%
BANK4              256      0       0      0.0%
BITBANK3           256      0       0      0.0%
BANK3              256      0       0      0.0%
BITBANK2           256      0       0      0.0%
BANK2              256      0       0      0.0%
BITBANK1           256      0       0      0.0%
BANK1              256      0       0      0.0%
BITBANK0           160      0       0      0.0%
BANK0              160      0       0      0.0%
BITCOMRAM           95      0       0      0.0%
COMRAM              95     56      58     61.1%
BITBIGSFRh          61      0       0      0.0%
BITBIGSFRlh         53      0       0      0.0%
BITBIGSFRll         44      0       0      0.0%
STACK                0      0       0      0.0%
DATA                 0      0      58      0.0%


Microchip Technology PIC18 Macro Assembler V3.10 build 20250813170317 
Symbol Table                                                                                   Wed May  6 19:31:46 2026

       Temperature_To_String@decimal_part 001E                    SSD1306_WriteString@str 000F  
                             _SSPSTATbits 0FC7                                        l30 7438  
                                      l24 74F6                                        l33 7446  
                                      l42 749E                                        l27 7472  
                                      l44 74AC                                        l36 744E  
                                      l45 74B0                                        l39 745C  
                                      l71 7566                                        l64 741E  
                                      l91 7430                                        l68 754C  
                                      l94 73F6                                        l88 7490  
                                      l97 7400                                        u10 74E8  
                                      u11 74E4                                        u20 74F6  
                                      u21 74F2                                        u30 7446  
                                      u31 7442                                        u40 745C  
                                      u41 7458                                        u50 74AC  
                                      u51 74A8             Display_Update@temperature_x10 0023  
                                     l101 75D8                                       l102 75FC  
                                     l113 7696                                       l121 7DD2  
                                     l202 74CE                                       l204 74D0  
                                     l213 7B42                                       l109 7648  
                                     l126 7D52                                       l118 7D02  
                                     l119 7CF2                                       l135 76F4  
                                     l240 77C2                                       l225 7942  
                                     l209 7BFE                                       l138 7CC4  
                                     l262 79E6                                       l255 79D6  
                                     l239 77B2                                       l191 7522  
                                     l185 7A36                                       l194 756A  
                                     l196 75B0                                       l199 782E  
                                     l836 78A0                                       l829 7898  
                                     l846 7758                                       l839 7750  
             __end_of_SSD1306_WriteString 76F6                                       u420 75C4  
                                     u500 7628                                       u421 75C0  
                                     u501 7624                                       u430 75D6  
                                     u510 763E                                       u431 75D2  
                                     u511 763A                                       u520 7CDA  
                                     u440 7848                                       u600 7B0C  
                                     u521 7CD6                                       u441 7844  
                                     u601 7B08                                       u530 7CEC  
                                     u450 7866                                       u610 7B38  
                                     u531 7CE8                                       u451 7862  
                                     u611 7B34                                       u540 7D16  
                                     u460 7882                                       u620 7536  
                                     u700 7778                                       u541 7D12  
                                     u461 787E                                       u621 7532  
                                     u701 7774                                       u550 7D26  
                                     u470 7708                                       u630 755A  
                                     u710 77B2                                       u390 75B0  
                                     u551 7D22                                       u471 7704  
                                     u631 7556                                       u711 77AE  
                                     u391 75AC                                       u640 765C  
                                     u560 7D3A                                       u480 7726  
                                     u720 796A                                       u641 7658  
                                     u561 7D36                                       u481 7722  
                                     u721 7966                                       u650 7688  
                                     u570 7D4C                                       u490 773C  
                                     u730 798C                                       u651 7684  
                                     u571 7D48                                       u491 7738  
                                     u731 7988                                       u580 7DC4  
                                     u660 76BC                                       u740 79B4  
                                     u581 7DC0                                       u741 79B0  
                                     u670 76E4                                       u590 7AA4  
                                     u750 74C8                                       u591 7AA0  
                                     u751 74C4                                       u807 7590  
                                     u680 76F4                                       u760 7BE2  
                                     u681 76F0                                       u761 7BDE  
                                     u817 7546                                       u690 791A  
                                     u667 76B2                                       u691 7916  
                                     u677 76DA                                       u777 7A7A  
                                     u787 7C0A                                       u797 7576  
             ??_Read_LM35_Temperature_X10 001C                                       wreg 0FE8  
                                    l1011 74D2                                      l1013 74D2  
                                    l1021 7448                                      l1015 74E8  
                                    l1031 74AE                                      l1023 744C  
                                    l1025 7494                                      l1041 73FA  
                                    l1017 7432                                      l1027 7498  
                                    l1019 7436                                      l1035 7476  
                                    l1203 7410                                      l1029 749A  
                                    l1037 7420                                      l1205 7412  
                                    l1039 73F2                                      l1511 762C  
                                    l1503 7610                                      l1441 75B4  
                                    l1521 7CDC                                      l1601 7526  
                                    l1513 762E                                      l1505 7616  
                                    l1443 75C4                                      l1531 7D16  
                                    l1523 7CEC                                      l1451 7830  
                                    l1611 755A                                      l1603 7536  
                                    l1515 763E                                      l1507 7618  
                                    l1445 75C6                                      l1621 766E  
                                    l1541 7D4C                                      l1533 7D26  
                                    l1525 7CF4                                      l1517 7CC8  
                                    l1461 7866                                      l1453 7836  
                                    l1605 7538                                      l1381 756C  
                                    l1509 7628                                      l1701 7CC0  
                                    l1447 75D6                                      l1631 7678  
                                    l1615 764C                                      l1543 7D54  
                                    l1535 7D2A                                      l1519 7CDA  
                                    l1471 7892                                      l1463 786C  
                                    l1455 7848                                      l1711 7900  
                                    l1703 78A2                                      l1607 7544  
                                    l1383 7584                                      l1375 7568  
                                    l1449 75E0                                      l1633 7688  
                                    l1561 7DC4                                      l1537 7D3A  
                                    l1545 7D5E                                      l1529 7D06  
                                    l1641 76C4                                      l1465 7882  
                                    l1457 7850                                      l1481 7726  
                                    l1473 76F6                                      l1721 7938  
                                    l1713 7902                                      l1705 78A4  
                                    l1801 7BC2                                      l1609 754A  
                                    l1385 759E                                      l1627 7670  
                                    l1619 7660                                      l1563 7DCE  
                                    l1555 7D8A                                      l1547 7D84  
                                    l1539 7D3C                                      l1635 7698  
                                    l1467 788A                                      l1459 7858  
                                    l1483 773C                                      l1475 7708  
                                    l1571 7AAE                                      l1715 791A  
                                    l1707 78D8                                      l1803 7BCC  
                                    l1731 7792                                      l1723 775A  
                                    l1651 7C2A                                      l1643 7C00  
                                    l1811 79FE                                      l1629 7676  
                                    l1557 7DB2                                      l1549 7D88  
                                    l1637 769C                                      l1469 788C  
                                    l1485 7744                                      l1477 7710  
                                    l1581 7AFA                                      l1565 7A8E  
                                    l1717 7926                                      l1709 78EC  
                                    l1805 7BE2                                      l1741 797E  
                                    l1733 7944                                      l1725 776A  
                                    l1661 7C48                                      l1653 7C30  
                                    l1645 7C18                                      l1821 7A70  
                                    l1813 7A0A                                      l1559 7DB4  
                                    l1639 76C0                                      l1487 774A  
                                    l1479 7718                                      l1591 7B38  
                                    l1583 7B10                                      l1575 7ABE  
                                    l1567 7A92                                      l1719 7928  
                                    l1807 7BF2                                      l1751 79C6  
                                    l1743 798C                                      l1735 7954  
                                    l1727 7778                                      l1495 7600  
                                    l1671 7C66                                      l1663 7C4E  
                                    l1655 7C36                                      l1647 7C1E  
                                    l1815 7A20                                      l1585 7B12  
                                    l1577 7ADE                                      l1569 7AA4  
                                    l1753 79D0                                      l1745 7996  
                                    l1737 796A                                      l1729 7788  
                                    l1593 745E                                      l1497 760E  
                                    l1489 75FE                                      l1681 7C84  
                                    l1673 7C6C                                      l1665 7C54  
                                    l1657 7C3C                                      l1649 7C24  
                                    l1761 7504                                      l1817 7A2A  
                                    l1809 79E8                                      l1587 7B26  
                                    l1579 7AF8                                      l1747 79B4  
                                    l1739 7972                                      l1771 7826  
                                    l1595 7462                                      l1691 7CA2  
                                    l1683 7C8A                                      l1675 7C72  
                                    l1667 7C5A                                      l1659 7C42  
                                    l1763 7506                                      l1755 74F8  
                                    l1819 7A5C                                      l1589 7B28  
                                    l1781 7B64                                      l1749 79C4  
                                    l1597 746A                                      l1693 7CA8  
                                    l1685 7C90                                      l1677 7C78  
                                    l1669 7C60                                      l1765 750A  
                                    l1757 7500                                      l1791 7B90  
                                    l1783 7B6A                                      l1775 74B2  
                                    l1599 7470                                      l1695 7CAE  
                                    l1687 7C96                                      l1679 7C7E  
                                    l1767 751E                                      l1759 7502  
                                    l1793 7B9A                                      l1785 7B74  
                                    l1777 74C8                                      l1769 77C4  
                                    l1697 7CB4                                      l1689 7C9C  
                                    l1795 7BA6                                      l1787 7B80  
                                    l1779 7B44                                      l1699 7CBA  
                                    l1797 7BB0                                      l1789 7B8A  
                                    l1799 7BBC                                      STR_1 7FC4  
                                    STR_2 7FD0                                      STR_3 7FB5  
                                    STR_4 7FF4                                      STR_5 7FED  
                                    STR_6 7FC1                                      STR_7 7FDB  
                                    STR_8 7FE4                                      _main 79E8  
                                    fsr1h 0FE2                                      fsr2h 0FDA  
                                    indf1 0FE7                                      indf2 0FDF  
                                    fsr1l 0FE1                                      fsr2l 0FD9  
                        __end_of_ADC_Init 7420                          __end_of_ADC_Read 7568  
                                    prodh 0FF4                                      prodl 0FF3  
                                    start 7FFC                   Display_Update@temp_text 0025  
                            ___param_bank 0000                           __end_of_Font5x7 7FB5  
                        ?_I2C_Master_Init 0001                          ?_I2C_Master_Wait 0001  
                        ?_I2C_Master_Stop 0001                         ??_SSD1306_Command 0003  
                                   ?_main 0001                                     _CMCON 0FB4  
                         __end_of___lldiv 79E8                           __end_of___lwdiv 78A2  
                         __end_of___lwmod 775A                     _Temperature_To_String 78A2  
                     ___lmul@multiplicand 0005                                     tablat 0FF5  
                                   status 0FD8                             main@adc_value 0035  
               _Read_LM35_Temperature_X10 77C4                     UInt16_To_String@value 0008  
                         __initialization 7402                              __end_of_main 7A8E  
                                  ??_main 0033                             __activetblptr 0002  
            __end_of_SSD1306_ClearDisplay 764A                         ?_UInt16_To_String 0008  
                       ?_I2C_Master_Start 0001                         ?_I2C_Master_Write 0001  
                      ??_UInt16_To_String 000B                        ??_I2C_Master_Start 0002  
                                  _ADCON0 0FC2                                    _ADCON1 0FC1  
                      ??_I2C_Master_Write 0002                                    _ADCON2 0FC0  
                                  _ADRESH 0FC4  Read_LM35_Temperature_X10@temperature_x10 001C  
                                  _ADRESL 0FC3                                    _CVRCON 0FB5  
                                  _OSCCON 0FD3                                    _SSPADD 0FC8  
                                  _SSPBUF 0FC9                             ?_SSD1306_Data 0001  
                       ?_SSD1306_StopData 0001                             ?_SSD1306_Init 0001  
                  SSD1306_Command@command 0003                                    ___lmul 775A  
                      ??_SSD1306_StopData 0002                                 ??___lldiv 0015  
                               ??___lwdiv 0005                                 ??___lwmod 0005  
                         ADC_Read@channel 0005                                    isa$std 0001  
                     main@temperature_x10 0037                    ?_Temperature_To_String 0013  
                               ?_ADC_Init 0001                                 ?_ADC_Read 0001  
                            __mediumconst 7DD4                                    tblptrh 0FF7  
                                  tblptrl 0FF6                                    tblptru 0FF8  
                       ?_Startup_LED_Test 0001                        SSD1306_WriteChar@c 000C  
                      SSD1306_WriteChar@i 000D                         Startup_LED_Test@i 0003  
                      ??_Startup_LED_Test 0001                    UInt16_To_String@buffer 000A  
                              __accesstop 0060                   __end_of__initialization 7406  
                           ___rparam_used 0001                            ??_SSD1306_Data 0003  
                          ??_SSD1306_Init 0008                            __pcstackCOMRAM 0001  
                       _SSD1306_ClearLine 764A                                ??_ADC_Init 0001  
                              ??_ADC_Read 0003                        ?_SSD1306_ClearLine 0001  
                 I2C_Master_Init@clock_hz 0001                       ??_SSD1306_ClearLine 0006  
                         _SSD1306_Command 7474                      _SSD1306_ClearDisplay 75FE  
                                 ?___lmul 0001                            ___lmul@product 0009  
               __end_of_SSD1306_ClearLine 7698                         _SSD1306_SetCursor 75B2  
                      ?_SSD1306_SetCursor 0004                                   _SSPCON1 0FC6  
                                 _SSPCON2 0FC5                       ??_SSD1306_SetCursor 0005  
                                 _SSPSTAT 0FC7                         _SSD1306_StartData 7420  
                   SSD1306_SetCursor@page 0004                                   _Font5x7 7DD5  
                           ??_System_Init 000A                        ?_SSD1306_StartData 0001  
                   ?_SSD1306_ClearDisplay 0001                                   __Hparam 0000  
                                 __Lparam 0000                         _SSD1306_WriteChar 7CC6  
                     ??_SSD1306_StartData 0003                        ?_SSD1306_WriteChar 0001  
                                 ___lldiv 7944                                   ___lwdiv 7830  
               __end_of_SSD1306_SetCursor 75FE                                   ___lwmod 76F6  
                                 __pcinit 7402                                   __ramtop 0800  
                                 __ptext0 79E8                                   __ptext1 74F8  
                                 __ptext2 7C00                                   __ptext3 75FE  
                                 __ptext4 745E                                   __ptext5 7410  
                                 __ptext6 7568                                   __ptext7 77C4  
                                 __ptext8 775A                                   __ptext9 7944  
                     ??_SSD1306_WriteChar 0006                      __end_of_SSD1306_Data 7402  
                    __end_of_SSD1306_Init 7CC6                 __end_of_SSD1306_StartData 7432  
                        SSD1306_Data@data 0003                      end_of_initialization 7406  
                 __end_of_SSD1306_Command 7492         Temperature_To_String@integer_part 001C  
       Temperature_To_String@integer_text 0016                             __Lmediumconst 7DD4  
               __end_of_SSD1306_WriteChar 7DD4                           ___lldiv@divisor 0011  
                         ___lldiv@counter 0019                     SSD1306_ClearLine@page 0007  
                     __end_of_System_Init 7524                   ??_Temperature_To_String 0016  
                  Display_Update@adc_text 002D                                 _TRISAbits 0F92  
                               _TRISBbits 0F93                                 _TRISDbits 0F95  
       Process_Components@temperature_x10 0001                   SSD1306_SetCursor@column 0005  
                  ??_SSD1306_ClearDisplay 0006                SSD1306_WriteChar@character 000E  
      Read_LM35_Temperature_X10@adc_value 0020                            __end_of___lmul 77C4  
                     start_initialization 7402                      UInt16_To_String@temp 000B  
                        ?_SSD1306_Command 0001                         ??_I2C_Master_Init 0005  
                       ??_I2C_Master_Wait 0001                         ??_I2C_Master_Stop 0002  
                             _System_Init 74F8                                  ??___lmul 0009  
                     _SSD1306_WriteString 7698                            _Display_Update 7B44  
                             __pbssCOMRAM 0039                __end_of_Process_Components 74D2  
                    ?_SSD1306_WriteString 000F                    Temperature_To_String@i 0020  
                        _UInt16_To_String 7A8E                          _I2C_Master_Start 7432  
                        _I2C_Master_Write 7492                          ___lwdiv@dividend 0001  
                            _SSD1306_Data 73F8                              _SSD1306_Init 7C00  
                           __pmediumconst 7DD4                                  ?___lldiv 000D  
                                ?___lwdiv 0001                                  ?___lwmod 0001  
                  __end_of_Display_Update 7C00                  SSD1306_ClearDisplay@page 0007  
                    I2C_Master_Write@data 0002                               __smallconst 7DD4  
                        _SSD1306_StopData 73F2                                  _ADC_Init 7410  
                                _ADC_Read 7524                     ??_SSD1306_WriteString 0011  
                        ___lwdiv@quotient 0005                                 _oled_page 0039  
                                _LATDbits 0F8C                          _Startup_LED_Test 7568  
                                _PIR1bits 0F9E                           ?_Display_Update 0021  
           __end_of_Temperature_To_String 7944                                _ADCON0bits 0FC2  
              ?_Read_LM35_Temperature_X10 001A                    SSD1306_WriteChar@index 000A  
                       ___lmul@multiplier 0001                                  __Hrparam 0000  
                                __Lrparam 0000      Temperature_To_String@temperature_x10 0013  
                         _I2C_Master_Init 745E                           _I2C_Master_Wait 74D2  
                         _I2C_Master_Stop 7448         __end_of_Read_LM35_Temperature_X10 7830  
                         ___lwdiv@divisor 0003                           ___lwdiv@counter 0007  
                                __ptext10 7524                                  __ptext11 74B2  
                                __ptext20 73F2                                  __ptext12 7B44  
                                __ptext21 7420                                  __ptext13 78A2  
                                __ptext22 75B2                                  __ptext14 7A8E  
                                __ptext23 7474                                  __ptext15 76F6  
                                __ptext24 7448                                  __ptext16 7830  
                                __ptext25 7432                                  __ptext17 7698  
                                __ptext26 73F8                                  __ptext18 7CC6  
                                __ptext27 7492                                  __ptext19 764A  
                                __ptext28 74D2                              ?_System_Init 0001  
                             _oled_column 003A                                  isa$xinst 0000  
                 SSD1306_ClearLine@column 0006                  __end_of_UInt16_To_String 7B44  
                __end_of_I2C_Master_Start 7448                  __end_of_I2C_Master_Write 74B2  
              SSD1306_ClearDisplay@column 0006                          ___lwmod@dividend 0001  
                        ___lldiv@dividend 000D                  __end_of_SSD1306_StopData 73F8  
                      _Process_Components 74B2                       ?_Process_Components 0001  
                 __end_of_I2C_Master_Init 7474                         UInt16_To_String@i 0012  
                       UInt16_To_String@j 0011                   __end_of_I2C_Master_Wait 74F8  
             Temperature_To_String@buffer 0015                   __end_of_I2C_Master_Stop 745E  
                        ___lldiv@quotient 0015                           ___lwmod@divisor 0003  
                         ___lwmod@counter 0005                  __end_of_Startup_LED_Test 75B2  
                 Display_Update@adc_value 0021                               _SSPCON2bits 0FC5  
                    ??_Process_Components 0003                          ??_Display_Update 0025  
